  400f72:	e8 09 01 00 00       	callq  401080 <__libc_start_main>
  400f77:	f4                   	hlt    
  400f78:	0f 1f 84 00 00 00 00 	nopl   0x0(%rax,%rax,1)
  400f7f:	00 

0000000000400f80 <deregister_tm_clones>:
  400f80:	b8 37 0c 6c 00       	mov    $0x6c0c37,%eax
  400f85:	55                   	push   %rbp
  400f86:	48 2d 30 0c 6c 00    	sub    $0x6c0c30,%rax
  400f8c:	48 83 f8 0e          	cmp    $0xe,%rax
  400f90:	48 89 e5             	mov    %rsp,%rbp
  400f93:	77 02                	ja     400f97 <deregister_tm_clones+0x17>
  400f95:	5d                   	pop    %rbp
  400f96:	c3                   	retq   
  400f97:	b8 00 00 00 00       	mov    $0x0,%eax
  400f9c:	48 85 c0             	test   %rax,%rax
  400f9f:	74 f4                	je     400f95 <deregister_tm_clones+0x15>
  400fa1:	5d                   	pop    %rbp
  400fa2:	bf 30 0c 6c 00       	mov    $0x6c0c30,%edi
  400fa7:	ff e0                	jmpq   *%rax
  400fa9:	0f 1f 80 00 00 00 00 	nopl   0x0(%rax)
--
000000000040105e <main>:
  40105e:	55                   	push   %rbp
  40105f:	48 89 e5             	mov    %rsp,%rbp
  401062:	48 83 ec 10          	sub    $0x10,%rsp
  401066:	89 7d fc             	mov    %edi,-0x4(%rbp)
  401069:	48 89 75 f0          	mov    %rsi,-0x10(%rbp)
  40106d:	bf 04 00 00 00       	mov    $0x4,%edi
  401072:	e8 c9 64 00 00       	callq  407540 <exit>
  401077:	66 0f 1f 84 00 00 00 	nopw   0x0(%rax,%rax,1)
  40107e:	00 00 

0000000000401080 <__libc_start_main>:
  401080:	41 56                	push   %r14
  401082:	b8 00 00 00 00       	mov    $0x0,%eax
  401087:	4d 89 c6             	mov    %r8,%r14
  40108a:	41 55                	push   %r13
  40108c:	49 89 cd             	mov    %rcx,%r13
  40108f:	41 54                	push   %r12
  401091:	4d 89 cc             	mov    %r9,%r12
  401094:	55                   	push   %rbp
  401095:	53                   	push   %rbx
  401096:	48 81 ec 90 00 00 00 	sub    $0x90,%rsp
  40109d:	48 85 c0             	test   %rax,%rax
  4010a0:	48 89 7c 24 18       	mov    %rdi,0x18(%rsp)
  4010a5:	89 74 24 0c          	mov    %esi,0xc(%rsp)
  4010a9:	48 89 54 24 10       	mov    %rdx,0x10(%rsp)
  4010ae:	0f 84 b5 02 00 00    	je     401369 <__libc_start_main+0x2e9>
  4010b4:	8b 0d 46 ef bf ff    	mov    -0x4010ba(%rip),%ecx        # 0 <__libc_tsd_LOCALE>
  4010ba:	31 c0                	xor    %eax,%eax
  4010bc:	85 c9                	test   %ecx,%ecx
  4010be:	0f 94 c0             	sete   %al
  4010c1:	89 05 f9 f6 2b 00    	mov    %eax,0x2bf6f9(%rip)        # 6c07c0 <__libc_multiple_libcs>
  4010c7:	48 63 44 24 0c       	movslq 0xc(%rsp),%rax
  4010cc:	48 8b 4c 24 10       	mov    0x10(%rsp),%rcx
  4010d1:	48 8b 94 24 c0 00 00 	mov    0xc0(%rsp),%rdx
  4010d8:	00 
  4010d9:	48 8d 7c c1 08       	lea    0x8(%rcx,%rax,8),%rdi
  4010de:	48 89 15 a3 de 2b 00 	mov    %rdx,0x2bdea3(%rip)        # 6bef88 <__libc_stack_end>
  4010e5:	48 89 3d 9c 07 2c 00 	mov    %rdi,0x2c079c(%rip)        # 6c1888 <__environ>
  4010ec:	0f 1f 40 00          	nopl   0x0(%rax)
  4010f0:	48 83 c7 08          	add    $0x8,%rdi
  4010f4:	48 83 7f f8 00       	cmpq   $0x0,-0x8(%rdi)
  4010f9:	75 f5                	jne    4010f0 <__libc_start_main+0x70>
  4010fb:	e8 70 63 03 00       	callq  437470 <_dl_aux_init>
  401100:	48 83 3d 38 1e 2c 00 	cmpq   $0x0,0x2c1e38(%rip)        # 6c2f40 <_dl_phdr>
  401107:	00 
  401108:	0f 84 8b 01 00 00    	je     401299 <__libc_start_main+0x219>
  40110e:	8b 15 ac f6 2b 00    	mov    0x2bf6ac(%rip),%edx        # 6c07c0 <__libc_multiple_libcs>
  401114:	85 d2                	test   %edx,%edx
  401116:	0f 84 47 01 00 00    	je     401263 <__libc_start_main+0x1e3>
  40111c:	b8 d8 01 40 00       	mov    $0x4001d8,%eax
  401121:	48 3d b0 02 40 00    	cmp    $0x4002b0,%rax
  401127:	73 40                	jae    401169 <__libc_start_main+0xe9>
  401129:	83 3d b0 f0 ff ff 25 	cmpl   $0x25,-0xf50(%rip)        # 4001e0 <__rela_iplt_start+0x8>
  401130:	48 8b 2d a1 f0 ff ff 	mov    -0xf5f(%rip),%rbp        # 4001d8 <__rela_iplt_start>
  401137:	0f 85 ca 01 00 00    	jne    401307 <__libc_start_main+0x287>
  40113d:	bb d8 01 40 00       	mov    $0x4001d8,%ebx
  401142:	eb 11                	jmp    401155 <__libc_start_main+0xd5>
  401144:	0f 1f 40 00          	nopl   0x0(%rax)
  401148:	83 7b 08 25          	cmpl   $0x25,0x8(%rbx)
  40114c:	48 8b 2b             	mov    (%rbx),%rbp
  40114f:	0f 85 b2 01 00 00    	jne    401307 <__libc_start_main+0x287>
  401155:	ff 53 10             	callq  *0x10(%rbx)
  401158:	48 83 c3 18          	add    $0x18,%rbx
  40115c:	48 89 45 00          	mov    %rax,0x0(%rbp)
  401160:	48 81 fb b0 02 40 00 	cmp    $0x4002b0,%rbx
  401167:	72 df                	jb     401148 <__libc_start_main+0xc8>
  401169:	e8 72 05 00 00       	callq  4016e0 <__pthread_initialize_minimal>
  40116e:	48 8b 05 0b de 2b 00 	mov    0x2bde0b(%rip),%rax        # 6bef80 <_dl_random>
  401175:	48 85 c0             	test   %rax,%rax
  401178:	0f 84 93 01 00 00    	je     401311 <__libc_start_main+0x291>
  40117e:	48 8b 10             	mov    (%rax),%rdx
  401181:	48 89 d6             	mov    %rdx,%rsi
  401184:	48 89 54 24 20       	mov    %rdx,0x20(%rsp)
  401189:	40 80 e6 00          	and    $0x0,%sil
  40118d:	64 48 89 34 25 28 00 	mov    %rsi,%fs:0x28
  401194:	00 00 
  401196:	48 85 c0             	test   %rax,%rax
  401199:	0f 84 2b 01 00 00    	je     4012ca <__libc_start_main+0x24a>
  40119f:	48 8b 48 08          	mov    0x8(%rax),%rcx
  4011a3:	64 48 89 0c 25 30 00 	mov    %rcx,%fs:0x30
  4011aa:	00 00 
  4011ac:	4d 85 e4             	test   %r12,%r12
  4011af:	74 0c                	je     4011bd <__libc_start_main+0x13d>
  4011b1:	31 d2                	xor    %edx,%edx
  4011b3:	31 f6                	xor    %esi,%esi
  4011b5:	4c 89 e7             	mov    %r12,%rdi
  4011b8:	e8 53 65 00 00       	callq  407710 <__cxa_atexit>
  4011bd:	48 8b 15 c4 06 2c 00 	mov    0x2c06c4(%rip),%rdx        # 6c1888 <__environ>
  4011c4:	48 8b 74 24 10       	mov    0x10(%rsp),%rsi
  4011c9:	8b 7c 24 0c          	mov    0xc(%rsp),%edi
  4011cd:	e8 6e 72 03 00       	callq  438440 <__libc_init_first>
  4011d2:	4d 85 f6             	test   %r14,%r14
  4011d5:	74 0c                	je     4011e3 <__libc_start_main+0x163>
  4011d7:	31 d2                	xor    %edx,%edx
  4011d9:	31 f6                	xor    %esi,%esi
  4011db:	4c 89 f7             	mov    %r14,%rdi
  4011de:	e8 2d 65 00 00       	callq  407710 <__cxa_atexit>
  4011e3:	8b 05 af dd 2b 00    	mov    0x2bddaf(%rip),%eax        # 6bef98 <__libc_enable_secure>
  4011e9:	85 c0                	test   %eax,%eax
  4011eb:	0f 85 a9 01 00 00    	jne    40139a <__libc_start_main+0x31a>
  4011f1:	4d 85 ed             	test   %r13,%r13
  4011f4:	74 13                	je     401209 <__libc_start_main+0x189>
  4011f6:	48 8b 15 8b 06 2c 00 	mov    0x2c068b(%rip),%rdx        # 6c1888 <__environ>
  4011fd:	48 8b 74 24 10       	mov    0x10(%rsp),%rsi
  401202:	8b 7c 24 0c          	mov    0xc(%rsp),%edi
  401206:	41 ff d5             	callq  *%r13
  401209:	48 8d 7c 24 20       	lea    0x20(%rsp),%rdi
  40120e:	e8 bd 57 00 00       	callq  4069d0 <_setjmp>
  401213:	85 c0                	test   %eax,%eax
  401215:	0f 85 55 01 00 00    	jne    401370 <__libc_start_main+0x2f0>
  40121b:	64 48 8b 04 25 00 03 	mov    %fs:0x300,%rax
  401222:	00 00 
  401224:	48 89 44 24 68       	mov    %rax,0x68(%rsp)
  401229:	64 48 8b 04 25 f8 02 	mov    %fs:0x2f8,%rax
  401230:	00 00 
  401232:	48 89 44 24 70       	mov    %rax,0x70(%rsp)
  401237:	48 8d 44 24 20       	lea    0x20(%rsp),%rax
  40123c:	64 48 89 04 25 00 03 	mov    %rax,%fs:0x300
  401243:	00 00 
  401245:	48 8b 15 3c 06 2c 00 	mov    0x2c063c(%rip),%rdx        # 6c1888 <__environ>
  40124c:	48 8b 74 24 10       	mov    0x10(%rsp),%rsi
  401251:	8b 7c 24 0c          	mov    0xc(%rsp),%edi
  401255:	48 8b 44 24 18       	mov    0x18(%rsp),%rax
  40125a:	ff d0                	callq  *%rax
  40125c:	89 c7                	mov    %eax,%edi
  40125e:	e8 dd 62 00 00       	callq  407540 <exit>
  401263:	e8 c8 70 03 00       	callq  438330 <_dl_discover_osversion>
  401268:	85 c0                	test   %eax,%eax
  40126a:	0f 88 20 01 00 00    	js     401390 <__libc_start_main+0x310>
  401270:	8b 15 22 1d 2c 00    	mov    0x2c1d22(%rip),%edx        # 6c2f98 <_dl_osversion>
  401276:	85 d2                	test   %edx,%edx
  401278:	0f 85 26 01 00 00    	jne    4013a4 <__libc_start_main+0x324>
  40127e:	89 05 14 1d 2c 00    	mov    %eax,0x2c1d14(%rip)        # 6c2f98 <_dl_osversion>
  401284:	3d 17 06 02 00       	cmp    $0x20617,%eax
  401289:	0f 8f 8d fe ff ff    	jg     40111c <__libc_start_main+0x9c>
  40128f:	bf 11 35 49 00       	mov    $0x493511,%edi
  401294:	e8 57 79 00 00       	callq  408bf0 <__libc_fatal>
  401299:	b8 00 00 40 00       	mov    $0x400000,%eax
  40129e:	48 85 c0             	test   %rax,%rax
  4012a1:	0f 84 67 fe ff ff    	je     40110e <__libc_start_main+0x8e>
  4012a7:	66 83 3d 87 ed ff ff 	cmpw   $0x38,-0x1279(%rip)        # 400036 <__ehdr_start+0x36>
  4012ae:	38 
  4012af:	74 2f                	je     4012e0 <__libc_start_main+0x260>
  4012b1:	b9 c0 35 49 00       	mov    $0x4935c0,%ecx
  4012b6:	ba ae 00 00 00       	mov    $0xae,%edx
  4012bb:	be 04 35 49 00       	mov    $0x493504,%esi
  4012c0:	bf 38 35 49 00       	mov    $0x493538,%edi
  4012c5:	e8 36 06 00 00       	callq  401900 <__assert_fail>
  4012ca:	0f 31                	rdtsc  
  4012cc:	48 89 d1             	mov    %rdx,%rcx
  4012cf:	89 c0                	mov    %eax,%eax
  4012d1:	48 c1 e1 20          	shl    $0x20,%rcx
  4012d5:	48 09 c1             	or     %rax,%rcx
  4012d8:	48 31 f1             	xor    %rsi,%rcx
  4012db:	e9 c3 fe ff ff       	jmpq   4011a3 <__libc_start_main+0x123>
  4012e0:	48 8b 05 39 ed ff ff 	mov    -0x12c7(%rip),%rax        # 400020 <__ehdr_start+0x20>
  4012e7:	48 05 00 00 40 00    	add    $0x400000,%rax
  4012ed:	48 89 05 4c 1c 2c 00 	mov    %rax,0x2c1c4c(%rip)        # 6c2f40 <_dl_phdr>
  4012f4:	0f b7 05 3d ed ff ff 	movzwl -0x12c3(%rip),%eax        # 400038 <__ehdr_start+0x38>
  4012fb:	48 89 05 76 1c 2c 00 	mov    %rax,0x2c1c76(%rip)        # 6c2f78 <_dl_phnum>
  401302:	e9 07 fe ff ff       	jmpq   40110e <__libc_start_main+0x8e>
  401307:	bf 90 35 49 00       	mov    $0x493590,%edi
  40130c:	e8 df 78 00 00       	callq  408bf0 <__libc_fatal>
  401311:	31 f6                	xor    %esi,%esi
  401313:	bf 28 35 49 00       	mov    $0x493528,%edi
  401318:	48 c7 44 24 20 00 00 	movq   $0x0,0x20(%rsp)
  40131f:	00 00 
  401321:	e8 b3 2a 03 00       	callq  433dd9 <__open_nocancel>
  401326:	85 c0                	test   %eax,%eax
  401328:	89 c3                	mov    %eax,%ebx
  40132a:	78 22                	js     40134e <__libc_start_main+0x2ce>
  40132c:	48 8d 74 24 21       	lea    0x21(%rsp),%rsi
  401331:	ba 07 00 00 00       	mov    $0x7,%edx
  401336:	89 c7                	mov    %eax,%edi
  401338:	e8 fc 2a 03 00       	callq  433e39 <__read_nocancel>
  40133d:	48 63 fb             	movslq %ebx,%rdi
  401340:	89 c2                	mov    %eax,%edx
  401342:	b8 03 00 00 00       	mov    $0x3,%eax
  401347:	0f 05                	syscall 
  401349:	83 fa 07             	cmp    $0x7,%edx
  40134c:	74 0a                	je     401358 <__libc_start_main+0x2d8>
  40134e:	c6 44 24 27 ff       	movb   $0xff,0x27(%rsp)
  401353:	c6 44 24 26 0a       	movb   $0xa,0x26(%rsp)
  401358:	48 8b 74 24 20       	mov    0x20(%rsp),%rsi
  40135d:	48 8b 05 1c dc 2b 00 	mov    0x2bdc1c(%rip),%rax        # 6bef80 <_dl_random>
  401364:	e9 24 fe ff ff       	jmpq   40118d <__libc_start_main+0x10d>
  401369:	31 c0                	xor    %eax,%eax
  40136b:	e9 51 fd ff ff       	jmpq   4010c1 <__libc_start_main+0x41>
  401370:	e8 8b ec bf ff       	callq  0 <__libc_tsd_LOCALE>
  401375:	f0 ff 0d 84 ec bf ff 	lock decl -0x40137c(%rip)        # 0 <__libc_tsd_LOCALE>
  40137c:	0f 94 c2             	sete   %dl
  40137f:	31 c0                	xor    %eax,%eax
  401381:	84 d2                	test   %dl,%dl
  401383:	0f 85 d3 fe ff ff    	jne    40125c <__libc_start_main+0x1dc>
  401389:	31 ff                	xor    %edi,%edi
  40138b:	e8 80 29 03 00       	callq  433d10 <__exit_thread>
  401390:	bf 68 35 49 00       	mov    $0x493568,%edi
  401395:	e8 56 78 00 00       	callq  408bf0 <__libc_fatal>
  40139a:	e8 21 00 00 00       	callq  4013c0 <__libc_check_standard_fds>
  40139f:	e9 4d fe ff ff       	jmpq   4011f1 <__libc_start_main+0x171>
  4013a4:	39 c2                	cmp    %eax,%edx
  4013a6:	0f 86 d8 fe ff ff    	jbe    401284 <__libc_start_main+0x204>
  4013ac:	0f 1f 40 00          	nopl   0x0(%rax)
  4013b0:	e9 c9 fe ff ff       	jmpq   40127e <__libc_start_main+0x1fe>
  4013b5:	66 2e 0f 1f 84 00 00 	nopw   %cs:0x0(%rax,%rax,1)
  4013bc:	00 00 00 
  4013bf:	90                   	nop

00000000004013c0 <__libc_check_standard_fds>:
  4013c0:	48 83 ec 08          	sub    $0x8,%rsp
  4013c4:	31 ff                	xor    %edi,%edi
  4013c6:	31 c0                	xor    %eax,%eax
  4013c8:	be 01 00 00 00       	mov    $0x1,%esi
  4013cd:	e8 0e 2c 03 00       	callq  433fe0 <__libc_fcntl>
  4013d2:	83 f8 ff             	cmp    $0xffffffff,%eax
  4013d5:	74 31                	je     401408 <__libc_check_standard_fds+0x48>
  4013d7:	31 c0                	xor    %eax,%eax
  4013d9:	be 01 00 00 00       	mov    $0x1,%esi
  4013de:	bf 01 00 00 00       	mov    $0x1,%edi
  4013e3:	e8 f8 2b 03 00       	callq  433fe0 <__libc_fcntl>
  4013e8:	83 f8 ff             	cmp    $0xffffffff,%eax
  4013eb:	74 53                	je     401440 <__libc_check_standard_fds+0x80>
  4013ed:	31 c0                	xor    %eax,%eax
  4013ef:	be 01 00 00 00       	mov    $0x1,%esi
--
  401fa3:	e8 28 13 00 00       	callq  4032d0 <_nl_load_domain>
  401fa8:	48 8b 85 60 ff ff ff 	mov    -0xa0(%rbp),%rax
  401faf:	e9 0d fc ff ff       	jmpq   401bc1 <_nl_find_msg+0x41>
  401fb4:	0f 1f 40 00          	nopl   0x0(%rax)
  401fb8:	4c 8b 7d 80          	mov    -0x80(%rbp),%r15
  401fbc:	e9 ae fd ff ff       	jmpq   401d6f <_nl_find_msg+0x1ef>
  401fc1:	49 8b 04 24          	mov    (%r12),%rax
  401fc5:	4c 89 e7             	mov    %r12,%rdi
  401fc8:	48 89 05 b1 f1 2b 00 	mov    %rax,0x2bf1b1(%rip)        # 6c1180 <transmem_list>
  401fcf:	e8 0c 2a 01 00       	callq  4149e0 <__cfree>
  401fd4:	48 c7 05 51 f1 2b 00 	movq   $0x0,0x2bf151(%rip)        # 6c1130 <freemem.9791>
  401fdb:	00 00 00 00 
  401fdf:	48 c7 05 36 f1 2b 00 	movq   $0x0,0x2bf136(%rip)        # 6c1120 <freemem_size.9792>
  401fe6:	00 00 00 00 
  401fea:	83 3d eb 0e 2c 00 00 	cmpl   $0x0,0x2c0eeb(%rip)        # 6c2edc <__libc_multiple_threads>
  401ff1:	74 0f                	je     402002 <_nl_find_msg+0x482>
  401ff3:	f0 ff 0d 3e f1 2b 00 	lock decl 0x2bf13e(%rip)        # 6c1138 <lock.9780>
  401ffa:	0f 85 8b 0f 00 00    	jne    402f8b <_L_unlock_1305>
  402000:	eb 0c                	jmp    40200e <_nl_find_msg+0x48e>
  402002:	ff 0d 30 f1 2b 00    	decl   0x2bf130(%rip)        # 6c1138 <lock.9780>
  402008:	0f 85 7d 0f 00 00    	jne    402f8b <_L_unlock_1305>
--
  40276b:	48 0f 44 05 0d c9 2b 	cmove  0x2bc90d(%rip),%rax        # 6bf080 <_nl_current_default_domain>
  402772:	00 
  402773:	48 89 4d c8          	mov    %rcx,-0x38(%rbp)
  402777:	48 89 85 60 ff ff ff 	mov    %rax,-0xa0(%rbp)
  40277e:	48 89 45 90          	mov    %rax,-0x70(%rbp)
  402782:	8b 85 5c ff ff ff    	mov    -0xa4(%rbp),%eax
  402788:	89 c7                	mov    %eax,%edi
  40278a:	89 45 98             	mov    %eax,-0x68(%rbp)
  40278d:	e8 fe 1d 04 00       	callq  444590 <__current_locale_name>
  402792:	48 89 c7             	mov    %rax,%rdi
  402795:	49 89 c4             	mov    %rax,%r12
  402798:	e8 03 6a 01 00       	callq  4191a0 <strlen>
  40279d:	48 8d 48 1f          	lea    0x1f(%rax),%rcx
  4027a1:	48 8d 50 01          	lea    0x1(%rax),%rdx
  4027a5:	4c 89 e6             	mov    %r12,%rsi
  4027a8:	48 83 e1 f0          	and    $0xfffffffffffffff0,%rcx
  4027ac:	48 29 cc             	sub    %rcx,%rsp
  4027af:	48 8d 7c 24 0f       	lea    0xf(%rsp),%rdi
  4027b4:	48 83 e7 f0          	and    $0xfffffffffffffff0,%rdi
  4027b8:	e8 23 f4 01 00       	callq  421be0 <memcpy>
  4027bd:	48 85 db             	test   %rbx,%rbx
--
  402827:	48 8b 1d 92 06 2c 00 	mov    0x2c0692(%rip),%rbx        # 6c2ec0 <_nl_domain_bindings>
  40282e:	64 8b 00             	mov    %fs:(%rax),%eax
  402831:	48 85 db             	test   %rbx,%rbx
  402834:	89 85 34 ff ff ff    	mov    %eax,-0xcc(%rbp)
  40283a:	0f 84 43 04 00 00    	je     402c83 <__dcigettext+0x5a3>
  402840:	4c 8b a5 60 ff ff ff 	mov    -0xa0(%rbp),%r12
  402847:	eb 19                	jmp    402862 <__dcigettext+0x182>
  402849:	0f 1f 80 00 00 00 00 	nopl   0x0(%rax)
  402850:	0f 88 4b 04 00 00    	js     402ca1 <__dcigettext+0x5c1>
  402856:	48 8b 1b             	mov    (%rbx),%rbx
  402859:	48 85 db             	test   %rbx,%rbx
  40285c:	0f 84 21 04 00 00    	je     402c83 <__dcigettext+0x5a3>
  402862:	48 8d 73 18          	lea    0x18(%rbx),%rsi
  402866:	4c 89 e7             	mov    %r12,%rdi
  402869:	e8 c2 da ff ff       	callq  400330 <__rela_iplt_end+0x80>
  40286e:	85 c0                	test   %eax,%eax
  402870:	75 de                	jne    402850 <__dcigettext+0x170>
  402872:	48 8b 43 08          	mov    0x8(%rbx),%rax
  402876:	80 38 2f             	cmpb   $0x2f,(%rax)
  402879:	48 89 85 68 ff ff ff 	mov    %rax,-0x98(%rbp)
  402880:	0f 84 92 00 00 00    	je     402918 <__dcigettext+0x238>
--
  402a57:	e8 d4 05 00 00       	callq  403030 <_nl_find_domain>
  402a5c:	48 85 c0             	test   %rax,%rax
  402a5f:	49 89 c5             	mov    %rax,%r13
  402a62:	74 9c                	je     402a00 <__dcigettext+0x320>
  402a64:	48 8b 95 78 ff ff ff 	mov    -0x88(%rbp),%rdx
  402a6b:	4c 8d 45 80          	lea    -0x80(%rbp),%r8
  402a6f:	b9 01 00 00 00       	mov    $0x1,%ecx
  402a74:	48 89 de             	mov    %rbx,%rsi
  402a77:	48 89 c7             	mov    %rax,%rdi
  402a7a:	e8 01 f1 ff ff       	callq  401b80 <_nl_find_msg>
  402a7f:	48 85 c0             	test   %rax,%rax
  402a82:	0f 84 70 01 00 00    	je     402bf8 <__dcigettext+0x518>
  402a88:	48 83 f8 ff          	cmp    $0xffffffffffffffff,%rax
  402a8c:	48 89 c1             	mov    %rax,%rcx
  402a8f:	0f 84 87 00 00 00    	je     402b1c <__dcigettext+0x43c>
  402a95:	48 83 bd 40 ff ff ff 	cmpq   $0x0,-0xc0(%rbp)
  402a9c:	00 
  402a9d:	0f 84 24 03 00 00    	je     402dc7 <__dcigettext+0x6e7>
  402aa3:	48 8b 9d 40 ff ff ff 	mov    -0xc0(%rbp),%rbx
  402aaa:	8b 15 18 04 2c 00    	mov    0x2c0418(%rip),%edx        # 6c2ec8 <_nl_msg_cat_cntr>
  402ab0:	48 8b 03             	mov    (%rbx),%rax
--
0000000000403030 <_nl_find_domain>:
  403030:	55                   	push   %rbp
  403031:	b8 00 00 00 00       	mov    $0x0,%eax
  403036:	48 89 e5             	mov    %rsp,%rbp
  403039:	41 57                	push   %r15
  40303b:	41 56                	push   %r14
  40303d:	49 89 d6             	mov    %rdx,%r14
  403040:	41 55                	push   %r13
  403042:	41 54                	push   %r12
  403044:	49 89 f4             	mov    %rsi,%r12
  403047:	53                   	push   %rbx
  403048:	48 89 fb             	mov    %rdi,%rbx
  40304b:	48 81 ec 88 00 00 00 	sub    $0x88,%rsp
  403052:	48 85 c0             	test   %rax,%rax
  403055:	48 89 8d 78 ff ff ff 	mov    %rcx,-0x88(%rbp)
  40305c:	74 07                	je     403065 <_nl_find_domain+0x35>
  40305e:	bf a0 11 6c 00       	mov    $0x6c11a0,%edi
  403063:	ff d0                	callq  *%rax
  403065:	48 89 df             	mov    %rbx,%rdi
  403068:	41 bd 00 00 00 00    	mov    $0x0,%r13d
  40306e:	e8 2d 61 01 00       	callq  4191a0 <strlen>
  403073:	48 8d 50 01          	lea    0x1(%rax),%rdx
  403077:	45 31 c9             	xor    %r9d,%r9d
  40307a:	31 c9                	xor    %ecx,%ecx
  40307c:	c7 44 24 20 00 00 00 	movl   $0x0,0x20(%rsp)
  403083:	00 
  403084:	4c 89 74 24 18       	mov    %r14,0x18(%rsp)
  403089:	4d 89 e0             	mov    %r12,%r8
  40308c:	48 c7 44 24 10 00 00 	movq   $0x0,0x10(%rsp)
  403093:	00 00 
  403095:	48 c7 44 24 08 00 00 	movq   $0x0,0x8(%rsp)
  40309c:	00 00 
  40309e:	48 89 de             	mov    %rbx,%rsi
  4030a1:	48 c7 04 24 00 00 00 	movq   $0x0,(%rsp)
  4030a8:	00 
  4030a9:	bf e0 11 6c 00       	mov    $0x6c11e0,%edi
--
  4030b9:	74 08                	je     4030c3 <_nl_find_domain+0x93>
  4030bb:	bf a0 11 6c 00       	mov    $0x6c11a0,%edi
  4030c0:	41 ff d5             	callq  *%r13
  4030c3:	4d 85 ff             	test   %r15,%r15
  4030c6:	0f 84 9c 00 00 00    	je     403168 <_nl_find_domain+0x138>
  4030cc:	41 8b 77 08          	mov    0x8(%r15),%esi
  4030d0:	85 f6                	test   %esi,%esi
  4030d2:	7e 7c                	jle    403150 <_nl_find_domain+0x120>
  4030d4:	49 83 7f 10 00       	cmpq   $0x0,0x10(%r15)
  4030d9:	4c 89 f8             	mov    %r15,%rax
  4030dc:	74 12                	je     4030f0 <_nl_find_domain+0xc0>
  4030de:	48 8d 65 d8          	lea    -0x28(%rbp),%rsp
  4030e2:	5b                   	pop    %rbx
  4030e3:	41 5c                	pop    %r12
  4030e5:	41 5d                	pop    %r13
  4030e7:	41 5e                	pop    %r14
  4030e9:	41 5f                	pop    %r15
  4030eb:	5d                   	pop    %rbp
  4030ec:	c3                   	retq   
  4030ed:	0f 1f 00             	nopl   (%rax)
  4030f0:	49 8b 7f 20          	mov    0x20(%r15),%rdi
  4030f4:	48 85 ff             	test   %rdi,%rdi
  4030f7:	74 e5                	je     4030de <_nl_find_domain+0xae>
  4030f9:	45 31 e4             	xor    %r12d,%r12d
  4030fc:	31 db                	xor    %ebx,%ebx
  4030fe:	eb 1d                	jmp    40311d <_nl_find_domain+0xed>
  403100:	49 8b 44 df 20       	mov    0x20(%r15,%rbx,8),%rax
  403105:	48 83 78 10 00       	cmpq   $0x0,0x10(%rax)
  40310a:	75 2c                	jne    403138 <_nl_find_domain+0x108>
  40310c:	41 83 c4 01          	add    $0x1,%r12d
  403110:	49 63 dc             	movslq %r12d,%rbx
  403113:	49 8b 7c df 20       	mov    0x20(%r15,%rbx,8),%rdi
  403118:	48 85 ff             	test   %rdi,%rdi
  40311b:	74 1b                	je     403138 <_nl_find_domain+0x108>
  40311d:	8b 4f 08             	mov    0x8(%rdi),%ecx
  403120:	85 c9                	test   %ecx,%ecx
  403122:	7f dc                	jg     403100 <_nl_find_domain+0xd0>
  403124:	48 8b b5 78 ff ff ff 	mov    -0x88(%rbp),%rsi
  40312b:	e8 a0 01 00 00       	callq  4032d0 <_nl_load_domain>
  403130:	eb ce                	jmp    403100 <_nl_find_domain+0xd0>
  403132:	66 0f 1f 44 00 00    	nopw   0x0(%rax,%rax,1)
  403138:	48 8d 65 d8          	lea    -0x28(%rbp),%rsp
  40313c:	4c 89 f8             	mov    %r15,%rax
  40313f:	5b                   	pop    %rbx
  403140:	41 5c                	pop    %r12
  403142:	41 5d                	pop    %r13
  403144:	41 5e                	pop    %r14
  403146:	41 5f                	pop    %r15
  403148:	5d                   	pop    %rbp
  403149:	c3                   	retq   
  40314a:	66 0f 1f 44 00 00    	nopw   0x0(%rax,%rax,1)
  403150:	48 8b b5 78 ff ff ff 	mov    -0x88(%rbp),%rsi
  403157:	4c 89 ff             	mov    %r15,%rdi
  40315a:	e8 71 01 00 00       	callq  4032d0 <_nl_load_domain>
  40315f:	e9 70 ff ff ff       	jmpq   4030d4 <_nl_find_domain+0xa4>
  403164:	0f 1f 40 00          	nopl   0x0(%rax)
  403168:	4c 89 e7             	mov    %r12,%rdi
  40316b:	e8 b0 1c 00 00       	callq  404e20 <_nl_expand_alias>
  403170:	48 85 c0             	test   %rax,%rax
  403173:	49 89 c7             	mov    %rax,%r15
  403176:	74 2b                	je     4031a3 <_nl_find_domain+0x173>
  403178:	48 89 c7             	mov    %rax,%rdi
  40317b:	e8 20 60 01 00       	callq  4191a0 <strlen>
  403180:	48 8d 50 01          	lea    0x1(%rax),%rdx
  403184:	48 83 c0 1f          	add    $0x1f,%rax
  403188:	4c 89 fe             	mov    %r15,%rsi
  40318b:	48 83 e0 f0          	and    $0xfffffffffffffff0,%rax
  40318f:	48 29 c4             	sub    %rax,%rsp
  403192:	48 8d 7c 24 37       	lea    0x37(%rsp),%rdi
  403197:	48 83 e7 f0          	and    $0xfffffffffffffff0,%rdi
  40319b:	e8 40 ea 01 00       	callq  421be0 <memcpy>
  4031a0:	49 89 c4             	mov    %rax,%r12
  4031a3:	4c 8d 4d c0          	lea    -0x40(%rbp),%r9
  4031a7:	4c 8d 45 b0          	lea    -0x50(%rbp),%r8
  4031ab:	48 8d 4d a0          	lea    -0x60(%rbp),%rcx
  4031af:	48 8d 55 90          	lea    -0x70(%rbp),%rdx
  4031b3:	48 8d 75 80          	lea    -0x80(%rbp),%rsi
  4031b7:	4c 89 e7             	mov    %r12,%rdi
  4031ba:	e8 31 24 00 00       	callq  4055f0 <_nl_explode_name>
  4031bf:	83 f8 ff             	cmp    $0xffffffff,%eax
  4031c2:	41 89 c4             	mov    %eax,%r12d
  4031c5:	0f 84 f8 00 00 00    	je     4032c3 <_nl_find_domain+0x293>
  4031cb:	b8 00 00 00 00       	mov    $0x0,%eax
  4031d0:	48 85 c0             	test   %rax,%rax
  4031d3:	74 07                	je     4031dc <_nl_find_domain+0x1ac>
  4031d5:	bf a0 11 6c 00       	mov    $0x6c11a0,%edi
  4031da:	ff d0                	callq  *%rax
  4031dc:	48 89 df             	mov    %rbx,%rdi
  4031df:	e8 bc 5f 01 00       	callq  4191a0 <strlen>
  4031e4:	48 8d 50 01          	lea    0x1(%rax),%rdx
  4031e8:	48 8b 45 90          	mov    -0x70(%rbp),%rax
  4031ec:	4c 8b 4d a0          	mov    -0x60(%rbp),%r9
  4031f0:	4c 8b 45 80          	mov    -0x80(%rbp),%r8
  4031f4:	48 89 de             	mov    %rbx,%rsi
  4031f7:	c7 44 24 20 01 00 00 	movl   $0x1,0x20(%rsp)
  4031fe:	00 
  4031ff:	4c 89 74 24 18       	mov    %r14,0x18(%rsp)
  403204:	44 89 e1             	mov    %r12d,%ecx
  403207:	bf e0 11 6c 00       	mov    $0x6c11e0,%edi
  40320c:	48 89 44 24 10       	mov    %rax,0x10(%rsp)
  403211:	48 8b 45 c0          	mov    -0x40(%rbp),%rax
  403215:	48 89 44 24 08       	mov    %rax,0x8(%rsp)
  40321a:	48 8b 45 b0          	mov    -0x50(%rbp),%rax
  40321e:	48 89 04 24          	mov    %rax,(%rsp)
  403222:	e8 99 1d 00 00       	callq  404fc0 <_nl_make_l10nflist>
--
  40322d:	74 0a                	je     403239 <_nl_find_domain+0x209>
  40322f:	bf a0 11 6c 00       	mov    $0x6c11a0,%edi
  403234:	e8 c7 cd bf ff       	callq  0 <__libc_tsd_LOCALE>
  403239:	48 85 db             	test   %rbx,%rbx
  40323c:	74 0e                	je     40324c <_nl_find_domain+0x21c>
  40323e:	8b 53 08             	mov    0x8(%rbx),%edx
  403241:	85 d2                	test   %edx,%edx
  403243:	7e 6d                	jle    4032b2 <_nl_find_domain+0x282>
  403245:	48 83 7b 10 00       	cmpq   $0x0,0x10(%rbx)
  40324a:	74 19                	je     403265 <_nl_find_domain+0x235>
  40324c:	41 83 e4 01          	and    $0x1,%r12d
  403250:	75 08                	jne    40325a <_nl_find_domain+0x22a>
  403252:	48 89 d8             	mov    %rbx,%rax
  403255:	e9 84 fe ff ff       	jmpq   4030de <_nl_find_domain+0xae>
  40325a:	48 8b 7d c0          	mov    -0x40(%rbp),%rdi
  40325e:	e8 7d 17 01 00       	callq  4149e0 <__cfree>
  403263:	eb ed                	jmp    403252 <_nl_find_domain+0x222>
  403265:	48 8b 7b 20          	mov    0x20(%rbx),%rdi
  403269:	48 85 ff             	test   %rdi,%rdi
  40326c:	74 de                	je     40324c <_nl_find_domain+0x21c>
  40326e:	45 31 f6             	xor    %r14d,%r14d
  403271:	45 31 ed             	xor    %r13d,%r13d
  403274:	eb 27                	jmp    40329d <_nl_find_domain+0x26d>
  403276:	66 2e 0f 1f 84 00 00 	nopw   %cs:0x0(%rax,%rax,1)
  40327d:	00 00 00 
  403280:	4a 8b 44 eb 20       	mov    0x20(%rbx,%r13,8),%rax
  403285:	48 83 78 10 00       	cmpq   $0x0,0x10(%rax)
  40328a:	75 c0                	jne    40324c <_nl_find_domain+0x21c>
  40328c:	41 83 c6 01          	add    $0x1,%r14d
  403290:	4d 63 ee             	movslq %r14d,%r13
  403293:	4a 8b 7c eb 20       	mov    0x20(%rbx,%r13,8),%rdi
  403298:	48 85 ff             	test   %rdi,%rdi
  40329b:	74 af                	je     40324c <_nl_find_domain+0x21c>
  40329d:	8b 47 08             	mov    0x8(%rdi),%eax
  4032a0:	85 c0                	test   %eax,%eax
  4032a2:	7f dc                	jg     403280 <_nl_find_domain+0x250>
  4032a4:	48 8b b5 78 ff ff ff 	mov    -0x88(%rbp),%rsi
  4032ab:	e8 20 00 00 00       	callq  4032d0 <_nl_load_domain>
  4032b0:	eb ce                	jmp    403280 <_nl_find_domain+0x250>
  4032b2:	48 8b b5 78 ff ff ff 	mov    -0x88(%rbp),%rsi
  4032b9:	48 89 df             	mov    %rbx,%rdi
  4032bc:	e8 0f 00 00 00       	callq  4032d0 <_nl_load_domain>
  4032c1:	eb 82                	jmp    403245 <_nl_find_domain+0x215>
  4032c3:	31 c0                	xor    %eax,%eax
  4032c5:	e9 14 fe ff ff       	jmpq   4030de <_nl_find_domain+0xae>
  4032ca:	66 0f 1f 44 00 00    	nopw   0x0(%rax,%rax,1)

00000000004032d0 <_nl_load_domain>:
  4032d0:	55                   	push   %rbp
  4032d1:	64 48 8b 14 25 10 00 	mov    %fs:0x10,%rdx
  4032d8:	00 00 
  4032da:	48 89 e5             	mov    %rsp,%rbp
  4032dd:	41 57                	push   %r15
  4032df:	41 56                	push   %r14
  4032e1:	41 55                	push   %r13
  4032e3:	41 54                	push   %r12
  4032e5:	53                   	push   %rbx
  4032e6:	48 89 fb             	mov    %rdi,%rbx
  4032e9:	48 81 ec 38 01 00 00 	sub    $0x138,%rsp
  4032f0:	48 3b 15 01 df 2b 00 	cmp    0x2bdf01(%rip),%rdx        # 6c11f8 <lock.9688+0x8>
  4032f7:	48 89 b5 28 ff ff ff 	mov    %rsi,-0xd8(%rbp)
  4032fe:	74 34                	je     403334 <_nl_load_domain+0x64>
  403300:	be 01 00 00 00       	mov    $0x1,%esi
  403305:	31 c0                	xor    %eax,%eax
  403307:	83 3d ce fb 2b 00 00 	cmpl   $0x0,0x2bfbce(%rip)        # 6c2edc <__libc_multiple_threads>
  40330e:	74 10                	je     403320 <_nl_load_domain+0x50>
  403310:	f0 0f b1 35 d8 de 2b 	lock cmpxchg %esi,0x2bded8(%rip)        # 6c11f0 <lock.9688>
  403317:	00 
  403318:	0f 85 fd 15 00 00    	jne    40491b <_L_lock_45>
  40331e:	eb 0d                	jmp    40332d <_nl_load_domain+0x5d>
  403320:	0f b1 35 c9 de 2b 00 	cmpxchg %esi,0x2bdec9(%rip)        # 6c11f0 <lock.9688>
  403327:	0f 85 ee 15 00 00    	jne    40491b <_L_lock_45>
  40332d:	48 89 15 c4 de 2b 00 	mov    %rdx,0x2bdec4(%rip)        # 6c11f8 <lock.9688+0x8>
  403334:	8b 15 ba de 2b 00    	mov    0x2bdeba(%rip),%edx        # 6c11f4 <lock.9688+0x4>
  40333a:	8b 4b 08             	mov    0x8(%rbx),%ecx
  40333d:	8d 42 01             	lea    0x1(%rdx),%eax
  403340:	85 c9                	test   %ecx,%ecx
  403342:	89 05 ac de 2b 00    	mov    %eax,0x2bdeac(%rip)        # 6c11f4 <lock.9688+0x4>
  403348:	74 4e                	je     403398 <_nl_load_domain+0xc8>
  40334a:	85 d2                	test   %edx,%edx
  40334c:	89 15 a2 de 2b 00    	mov    %edx,0x2bdea2(%rip)        # 6c11f4 <lock.9688+0x4>
  403352:	75 2f                	jne    403383 <_nl_load_domain+0xb3>
  403354:	48 c7 05 99 de 2b 00 	movq   $0x0,0x2bde99(%rip)        # 6c11f8 <lock.9688+0x8>
  40335b:	00 00 00 00 
  40335f:	83 3d 76 fb 2b 00 00 	cmpl   $0x0,0x2bfb76(%rip)        # 6c2edc <__libc_multiple_threads>
  403366:	74 0f                	je     403377 <_nl_load_domain+0xa7>
  403368:	f0 ff 0d 81 de 2b 00 	lock decl 0x2bde81(%rip)        # 6c11f0 <lock.9688>
  40336f:	0f 85 c5 15 00 00    	jne    40493a <_L_unlock_84>
  403375:	eb 0c                	jmp    403383 <_nl_load_domain+0xb3>
  403377:	ff 0d 73 de 2b 00    	decl   0x2bde73(%rip)        # 6c11f0 <lock.9688>
  40337d:	0f 85 b7 15 00 00    	jne    40493a <_L_unlock_84>
  403383:	48 8d 65 d8          	lea    -0x28(%rbp),%rsp
  403387:	5b                   	pop    %rbx
  403388:	41 5c                	pop    %r12
  40338a:	41 5d                	pop    %r13
  40338c:	41 5e                	pop    %r14
  40338e:	41 5f                	pop    %r15
  403390:	5d                   	pop    %rbp
  403391:	c3                   	retq   
  403392:	66 0f 1f 44 00 00    	nopw   0x0(%rax,%rax,1)
  403398:	48 8b 3b             	mov    (%rbx),%rdi
  40339b:	c7 43 08 ff ff ff ff 	movl   $0xffffffff,0x8(%rbx)
  4033a2:	48 c7 43 10 00 00 00 	movq   $0x0,0x10(%rbx)
  4033a9:	00 
  4033aa:	48 85 ff             	test   %rdi,%rdi
  4033ad:	0f 84 cd 01 00 00    	je     403580 <_nl_load_domain+0x2b0>
  4033b3:	31 f6                	xor    %esi,%esi
  4033b5:	31 c0                	xor    %eax,%eax
  4033b7:	e8 1d 0a 03 00       	callq  433dd9 <__open_nocancel>
  4033bc:	83 f8 ff             	cmp    $0xffffffff,%eax
  4033bf:	41 89 c4             	mov    %eax,%r12d
  4033c2:	0f 84 b2 01 00 00    	je     40357a <_nl_load_domain+0x2aa>
  4033c8:	48 8d 95 40 ff ff ff 	lea    -0xc0(%rbp),%rdx
  4033cf:	89 c6                	mov    %eax,%esi
  4033d1:	bf 01 00 00 00       	mov    $0x1,%edi
  4033d6:	e8 a5 09 03 00       	callq  433d80 <__fxstat>
  4033db:	85 c0                	test   %eax,%eax
  4033dd:	0f 85 12 02 00 00    	jne    4035f5 <_nl_load_domain+0x325>
  4033e3:	48 8b 85 70 ff ff ff 	mov    -0x90(%rbp),%rax
  4033ea:	48 83 f8 2f          	cmp    $0x2f,%rax
  4033ee:	48 89 c6             	mov    %rax,%rsi
  4033f1:	48 89 85 18 ff ff ff 	mov    %rax,-0xe8(%rbp)
  4033f8:	0f 86 f7 01 00 00    	jbe    4035f5 <_nl_load_domain+0x325>
  4033fe:	45 31 c9             	xor    %r9d,%r9d
  403401:	31 ff                	xor    %edi,%edi
  403403:	45 89 e0             	mov    %r12d,%r8d
  403406:	b9 02 00 00 00       	mov    $0x2,%ecx
  40340b:	ba 01 00 00 00       	mov    $0x1,%edx
  403410:	e8 4b 15 03 00       	callq  434960 <__mmap>
  403415:	48 83 f8 ff          	cmp    $0xffffffffffffffff,%rax
  403419:	49 89 c7             	mov    %rax,%r15
  40341c:	0f 84 7b 01 00 00    	je     40359d <_nl_load_domain+0x2cd>
  403422:	49 63 fc             	movslq %r12d,%rdi
  403425:	b8 03 00 00 00       	mov    $0x3,%eax
  40342a:	0f 05                	syscall 
  40342c:	41 8b 07             	mov    (%r15),%eax
  40342f:	3d de 12 04 95       	cmp    $0x950412de,%eax
  403434:	0f 95 c2             	setne  %dl
  403437:	3d 95 04 12 de       	cmp    $0xde120495,%eax
  40343c:	41 89 d4             	mov    %edx,%r12d
  40343f:	0f 85 ea 0c 00 00    	jne    40412f <_nl_load_domain+0xe5f>
  403445:	c7 85 24 ff ff ff 01 	movl   $0x1,-0xdc(%rbp)
  40344c:	00 00 00 
  40344f:	bf c8 00 00 00       	mov    $0xc8,%edi
  403454:	e8 07 0f 01 00       	callq  414360 <__libc_malloc>
  403459:	48 85 c0             	test   %rax,%rax
  40345c:	49 89 c5             	mov    %rax,%r13
  40345f:	0f 84 15 01 00 00    	je     40357a <_nl_load_domain+0x2aa>
  403465:	48 89 43 10          	mov    %rax,0x10(%rbx)
  403469:	4c 89 38             	mov    %r15,(%rax)
  40346c:	45 0f b6 f4          	movzbl %r12b,%r14d
  403470:	8b 85 24 ff ff ff    	mov    -0xdc(%rbp),%eax
  403476:	45 85 f6             	test   %r14d,%r14d
  403479:	45 89 75 18          	mov    %r14d,0x18(%r13)
  40347d:	49 c7 45 20 00 00 00 	movq   $0x0,0x20(%r13)
  403484:	00 
  403485:	41 89 45 08          	mov    %eax,0x8(%r13)
  403489:	48 8b 85 18 ff ff ff 	mov    -0xe8(%rbp),%rax
  403490:	49 89 45 10          	mov    %rax,0x10(%r13)
  403494:	41 8b 47 04          	mov    0x4(%r15),%eax
  403498:	74 02                	je     40349c <_nl_load_domain+0x1cc>
  40349a:	0f c8                	bswap  %eax
  40349c:	3d ff ff 01 00       	cmp    $0x1ffff,%eax
  4034a1:	0f 87 a1 03 00 00    	ja     403848 <_nl_load_domain+0x578>
  4034a7:	45 85 f6             	test   %r14d,%r14d
  4034aa:	41 8b 57 08          	mov    0x8(%r15),%edx
  4034ae:	0f 84 5c 01 00 00    	je     403610 <_nl_load_domain+0x340>
  4034b4:	0f ca                	bswap  %edx
  4034b6:	41 8b 4f 14          	mov    0x14(%r15),%ecx
  4034ba:	41 89 55 28          	mov    %edx,0x28(%r13)
  4034be:	41 8b 57 0c          	mov    0xc(%r15),%edx
  4034c2:	0f c9                	bswap  %ecx
  4034c4:	0f ca                	bswap  %edx
  4034c6:	89 d2                	mov    %edx,%edx
  4034c8:	4c 01 fa             	add    %r15,%rdx
  4034cb:	49 89 55 30          	mov    %rdx,0x30(%r13)
  4034cf:	41 8b 57 10          	mov    0x10(%r15),%edx
  4034d3:	41 89 4d 58          	mov    %ecx,0x58(%r13)
  4034d7:	0f ca                	bswap  %edx
  4034d9:	89 d2                	mov    %edx,%edx
  4034db:	4c 01 fa             	add    %r15,%rdx
  4034de:	83 f9 02             	cmp    $0x2,%ecx
  4034e1:	49 89 55 38          	mov    %rdx,0x38(%r13)
  4034e5:	0f 86 65 02 00 00    	jbe    403750 <_nl_load_domain+0x480>
  4034eb:	41 8b 57 18          	mov    0x18(%r15),%edx
  4034ef:	89 8d 10 ff ff ff    	mov    %ecx,-0xf0(%rbp)
  4034f5:	0f ca                	bswap  %edx
  4034f7:	89 d2                	mov    %edx,%edx
  4034f9:	e9 46 02 00 00       	jmpq   403744 <_nl_load_domain+0x474>
  4034fe:	66 90                	xchg   %ax,%ax
  403500:	41 c7 45 40 00 00 00 	movl   $0x0,0x40(%r13)
  403507:	00 
  403508:	49 c7 45 48 00 00 00 	movq   $0x0,0x48(%r13)
  40350f:	00 
  403510:	49 c7 45 50 00 00 00 	movq   $0x0,0x50(%r13)
  403517:	00 
  403518:	b8 00 00 00 00       	mov    $0x0,%eax
  40351d:	49 c7 45 70 00 00 00 	movq   $0x0,0x70(%r13)
  403524:	00 
  403525:	49 c7 45 78 00 00 00 	movq   $0x0,0x78(%r13)
  40352c:	00 
  40352d:	48 85 c0             	test   %rax,%rax
  403530:	74 0b                	je     40353d <_nl_load_domain+0x26d>
  403532:	49 8d bd 80 00 00 00 	lea    0x80(%r13),%rdi
  403539:	31 f6                	xor    %esi,%esi
  40353b:	ff d0                	callq  *%rax
  40353d:	48 8b b5 28 ff ff ff 	mov    -0xd8(%rbp),%rsi
  403544:	4c 8d 85 30 ff ff ff 	lea    -0xd0(%rbp),%r8
  40354b:	31 c9                	xor    %ecx,%ecx
  40354d:	ba 09 5d 4a 00       	mov    $0x4a5d09,%edx
  403552:	48 89 df             	mov    %rbx,%rdi
  403555:	e8 26 e6 ff ff       	callq  401b80 <_nl_find_msg>
  40355a:	48 83 f8 ff          	cmp    $0xffffffffffffffff,%rax
  40355e:	0f 84 f9 01 00 00    	je     40375d <_nl_load_domain+0x48d>
  403564:	49 8d 95 c0 00 00 00 	lea    0xc0(%r13),%rdx
  40356b:	49 8d b5 b8 00 00 00 	lea    0xb8(%r13),%rsi
  403572:	48 89 c7             	mov    %rax,%rdi
  403575:	e8 36 33 00 00       	callq  4068b0 <__gettext_extract_plural>
  40357a:	8b 05 74 dc 2b 00    	mov    0x2bdc74(%rip),%eax        # 6c11f4 <lock.9688+0x4>
  403580:	83 e8 01             	sub    $0x1,%eax
  403583:	c7 43 08 01 00 00 00 	movl   $0x1,0x8(%rbx)
  40358a:	85 c0                	test   %eax,%eax
  40358c:	89 05 62 dc 2b 00    	mov    %eax,0x2bdc62(%rip)        # 6c11f4 <lock.9688+0x4>
  403592:	0f 84 bc fd ff ff    	je     403354 <_nl_load_domain+0x84>
  403598:	e9 e6 fd ff ff       	jmpq   403383 <_nl_load_domain+0xb3>
  40359d:	4c 8b ad 18 ff ff ff 	mov    -0xe8(%rbp),%r13
  4035a4:	4c 89 ef             	mov    %r13,%rdi
  4035a7:	e8 b4 0d 01 00       	callq  414360 <__libc_malloc>
  4035ac:	48 85 c0             	test   %rax,%rax
  4035af:	49 89 c7             	mov    %rax,%r15
  4035b2:	74 41                	je     4035f5 <_nl_load_domain+0x325>
  4035b4:	49 89 c6             	mov    %rax,%r14
  4035b7:	eb 18                	jmp    4035d1 <_nl_load_domain+0x301>
  4035b9:	0f 1f 80 00 00 00 00 	nopl   0x0(%rax)
  4035c0:	48 85 c9             	test   %rcx,%rcx
  4035c3:	7e 30                	jle    4035f5 <_nl_load_domain+0x325>
  4035c5:	49 01 ce             	add    %rcx,%r14
  4035c8:	49 29 cd             	sub    %rcx,%r13
  4035cb:	0f 84 7f 0b 00 00    	je     404150 <_nl_load_domain+0xe80>
  4035d1:	4c 89 ea             	mov    %r13,%rdx
  4035d4:	4c 89 f6             	mov    %r14,%rsi
  4035d7:	44 89 e7             	mov    %r12d,%edi
  4035da:	e8 5a 08 03 00       	callq  433e39 <__read_nocancel>
  4035df:	48 63 c8             	movslq %eax,%rcx
  4035e2:	48 83 f9 ff          	cmp    $0xffffffffffffffff,%rcx
  4035e6:	75 d8                	jne    4035c0 <_nl_load_domain+0x2f0>
  4035e8:	48 c7 c0 c0 ff ff ff 	mov    $0xffffffffffffffc0,%rax
  4035ef:	64 83 38 04          	cmpl   $0x4,%fs:(%rax)
  4035f3:	74 dc                	je     4035d1 <_nl_load_domain+0x301>
  4035f5:	49 63 fc             	movslq %r12d,%rdi
  4035f8:	b8 03 00 00 00       	mov    $0x3,%eax
  4035fd:	0f 05                	syscall 
  4035ff:	8b 05 ef db 2b 00    	mov    0x2bdbef(%rip),%eax        # 6c11f4 <lock.9688+0x4>
  403605:	e9 76 ff ff ff       	jmpq   403580 <_nl_load_domain+0x2b0>
  40360a:	66 0f 1f 44 00 00    	nopw   0x0(%rax,%rax,1)
  403610:	41 89 55 28          	mov    %edx,0x28(%r13)
  403614:	41 8b 57 0c          	mov    0xc(%r15),%edx
  403618:	41 8b 4f 14          	mov    0x14(%r15),%ecx
  40361c:	4c 01 fa             	add    %r15,%rdx
  40361f:	89 8d 10 ff ff ff    	mov    %ecx,-0xf0(%rbp)
  403625:	49 89 55 30          	mov    %rdx,0x30(%r13)
  403629:	41 8b 57 10          	mov    0x10(%r15),%edx
  40362d:	41 89 4d 58          	mov    %ecx,0x58(%r13)
  403631:	4c 01 fa             	add    %r15,%rdx
  403634:	49 89 55 38          	mov    %rdx,0x38(%r13)
  403638:	31 d2                	xor    %edx,%edx
  40363a:	83 f9 02             	cmp    $0x2,%ecx
  40363d:	0f 87 fd 00 00 00    	ja     403740 <_nl_load_domain+0x470>
  403643:	66 85 c0             	test   %ax,%ax
  403646:	49 89 55 60          	mov    %rdx,0x60(%r13)
  40364a:	45 89 75 68          	mov    %r14d,0x68(%r13)
  40364e:	0f 84 ac fe ff ff    	je     403500 <_nl_load_domain+0x230>
  403654:	48 85 d2             	test   %rdx,%rdx
  403657:	0f 84 1b 01 00 00    	je     403778 <_nl_load_domain+0x4a8>
  40365d:	45 85 f6             	test   %r14d,%r14d
  403660:	41 8b 47 24          	mov    0x24(%r15),%eax
  403664:	0f 84 f6 01 00 00    	je     403860 <_nl_load_domain+0x590>
  40366a:	0f c8                	bswap  %eax
  40366c:	85 c0                	test   %eax,%eax
  40366e:	89 85 20 ff ff ff    	mov    %eax,-0xe0(%rbp)
  403674:	0f 84 86 fe ff ff    	je     403500 <_nl_load_domain+0x230>
  40367a:	41 8b 47 1c          	mov    0x1c(%r15),%eax
  40367e:	41 8b 57 20          	mov    0x20(%r15),%edx
  403682:	0f c8                	bswap  %eax
  403684:	0f ca                	bswap  %edx
  403686:	89 85 08 ff ff ff    	mov    %eax,-0xf8(%rbp)
  40368c:	89 d2                	mov    %edx,%edx
  40368e:	89 c1                	mov    %eax,%ecx
  403690:	89 c8                	mov    %ecx,%eax
  403692:	4c 01 fa             	add    %r15,%rdx
  403695:	48 8d 04 c5 1e 00 00 	lea    0x1e(,%rax,8),%rax
  40369c:	00 
  40369d:	48 c1 e8 04          	shr    $0x4,%rax
  4036a1:	48 c1 e0 04          	shl    $0x4,%rax
  4036a5:	48 29 c4             	sub    %rax,%rsp
  4036a8:	4c 8d 4c 24 0f       	lea    0xf(%rsp),%r9
  4036ad:	49 83 e1 f0          	and    $0xfffffffffffffff0,%r9
  4036b1:	85 c9                	test   %ecx,%ecx
  4036b3:	0f 84 ca 01 00 00    	je     403883 <_nl_load_domain+0x5b3>
  4036b9:	89 c8                	mov    %ecx,%eax
  4036bb:	41 ba 0e 37 49 00    	mov    $0x49370e,%r10d
  4036c1:	31 c9                	xor    %ecx,%ecx
  4036c3:	83 e8 01             	sub    $0x1,%eax
  4036c6:	4c 8d 24 c5 08 00 00 	lea    0x8(,%rax,8),%r12
  4036cd:	00 
  4036ce:	eb 58                	jmp    403728 <_nl_load_domain+0x458>
  4036d0:	8b 42 04             	mov    0x4(%rdx),%eax
  4036d3:	8b 32                	mov    (%rdx),%esi
  4036d5:	0f c8                	bswap  %eax
  4036d7:	0f ce                	bswap  %esi
  4036d9:	89 c0                	mov    %eax,%eax
  4036db:	4c 01 f8             	add    %r15,%rax
  4036de:	85 f6                	test   %esi,%esi
  4036e0:	0f 84 92 00 00 00    	je     403778 <_nl_load_domain+0x4a8>
  4036e6:	83 ee 01             	sub    $0x1,%esi
  4036e9:	80 3c 30 00          	cmpb   $0x0,(%rax,%rsi,1)
  4036ed:	0f 85 85 00 00 00    	jne    403778 <_nl_load_domain+0x4a8>
  4036f3:	0f b6 30             	movzbl (%rax),%esi
  4036f6:	40 80 fe 50          	cmp    $0x50,%sil
  4036fa:	0f 84 b8 00 00 00    	je     4037b8 <_nl_load_domain+0x4e8>
  403700:	40 80 fe 49          	cmp    $0x49,%sil
  403704:	be 00 00 00 00       	mov    $0x0,%esi
  403709:	75 08                	jne    403713 <_nl_load_domain+0x443>
  40370b:	80 78 01 00          	cmpb   $0x0,0x1(%rax)
  40370f:	49 0f 44 f2          	cmove  %r10,%rsi
  403713:	49 89 34 09          	mov    %rsi,(%r9,%rcx,1)
  403717:	48 83 c1 08          	add    $0x8,%rcx
  40371b:	48 83 c2 08          	add    $0x8,%rdx
  40371f:	4c 39 e1             	cmp    %r12,%rcx
  403722:	0f 84 5b 01 00 00    	je     403883 <_nl_load_domain+0x5b3>
  403728:	45 85 f6             	test   %r14d,%r14d
  40372b:	75 a3                	jne    4036d0 <_nl_load_domain+0x400>
  40372d:	8b 42 04             	mov    0x4(%rdx),%eax
  403730:	8b 32                	mov    (%rdx),%esi
  403732:	4c 01 f8             	add    %r15,%rax
  403735:	eb a7                	jmp    4036de <_nl_load_domain+0x40e>
  403737:	66 0f 1f 84 00 00 00 	nopw   0x0(%rax,%rax,1)
  40373e:	00 00 
  403740:	41 8b 57 18          	mov    0x18(%r15),%edx
  403744:	4c 01 fa             	add    %r15,%rdx
  403747:	e9 f7 fe ff ff       	jmpq   403643 <_nl_load_domain+0x373>
  40374c:	0f 1f 40 00          	nopl   0x0(%rax)
  403750:	89 8d 10 ff ff ff    	mov    %ecx,-0xf0(%rbp)
  403756:	31 d2                	xor    %edx,%edx
  403758:	e9 e6 fe ff ff       	jmpq   403643 <_nl_load_domain+0x373>
  40375d:	b8 00 00 00 00       	mov    $0x0,%eax
  403762:	48 85 c0             	test   %rax,%rax
  403765:	74 11                	je     403778 <_nl_load_domain+0x4a8>
  403767:	49 8d bd 80 00 00 00 	lea    0x80(%r13),%rdi
  40376e:	e8 8d c8 bf ff       	callq  0 <__libc_tsd_LOCALE>
  403773:	0f 1f 44 00 00       	nopl   0x0(%rax,%rax,1)
  403778:	49 8b 7d 20          	mov    0x20(%r13),%rdi
  40377c:	e8 5f 12 01 00       	callq  4149e0 <__cfree>
  403781:	8b 85 24 ff ff ff    	mov    -0xdc(%rbp),%eax
  403787:	85 c0                	test   %eax,%eax
  403789:	0f 84 c1 00 00 00    	je     403850 <_nl_load_domain+0x580>
  40378f:	48 8b b5 18 ff ff ff 	mov    -0xe8(%rbp),%rsi
  403796:	4c 89 ff             	mov    %r15,%rdi
  403799:	e8 e2 11 03 00       	callq  434980 <__munmap>
  40379e:	4c 89 ef             	mov    %r13,%rdi
  4037a1:	e8 3a 12 01 00       	callq  4149e0 <__cfree>
  4037a6:	48 c7 43 10 00 00 00 	movq   $0x0,0x10(%rbx)
  4037ad:	00 
  4037ae:	e9 c7 fd ff ff       	jmpq   40357a <_nl_load_domain+0x2aa>
  4037b3:	0f 1f 44 00 00       	nopl   0x0(%rax,%rax,1)
  4037b8:	31 f6                	xor    %esi,%esi
  4037ba:	80 78 01 52          	cmpb   $0x52,0x1(%rax)
  4037be:	0f 85 4f ff ff ff    	jne    403713 <_nl_load_domain+0x443>
  4037c4:	80 78 02 49          	cmpb   $0x49,0x2(%rax)
  4037c8:	0f 85 45 ff ff ff    	jne    403713 <_nl_load_domain+0x443>
  4037ce:	0f b6 78 03          	movzbl 0x3(%rax),%edi
  4037d2:	40 80 ff 64          	cmp    $0x64,%dil
  4037d6:	41 0f 94 c0          	sete   %r8b
  4037da:	40 80 ff 69          	cmp    $0x69,%dil
  4037de:	0f 94 85 04 ff ff ff 	sete   -0xfc(%rbp)
  4037e5:	45 84 c0             	test   %r8b,%r8b
  4037e8:	75 26                	jne    403810 <_nl_load_domain+0x540>
  4037ea:	80 bd 04 ff ff ff 00 	cmpb   $0x0,-0xfc(%rbp)
  4037f1:	75 1d                	jne    403810 <_nl_load_domain+0x540>
  4037f3:	40 80 ff 6f          	cmp    $0x6f,%dil
  4037f7:	74 17                	je     403810 <_nl_load_domain+0x540>
  4037f9:	40 80 ff 75          	cmp    $0x75,%dil
  4037fd:	74 11                	je     403810 <_nl_load_domain+0x540>
  4037ff:	41 89 fb             	mov    %edi,%r11d
  403802:	41 83 e3 df          	and    $0xffffffdf,%r11d
  403806:	41 80 fb 58          	cmp    $0x58,%r11b
  40380a:	0f 85 03 ff ff ff    	jne    403713 <_nl_load_domain+0x443>
  403810:	0f b6 70 04          	movzbl 0x4(%rax),%esi
  403814:	40 80 fe 38          	cmp    $0x38,%sil
  403818:	0f 84 91 06 00 00    	je     403eaf <_nl_load_domain+0xbdf>
  40381e:	40 80 fe 31          	cmp    $0x31,%sil
  403822:	0f 84 d9 06 00 00    	je     403f01 <_nl_load_domain+0xc31>
  403828:	40 80 fe 33          	cmp    $0x33,%sil
  40382c:	0f 85 2e 07 00 00    	jne    403f60 <_nl_load_domain+0xc90>
  403832:	80 78 05 32          	cmpb   $0x32,0x5(%rax)
  403836:	0f 84 89 08 00 00    	je     4040c5 <_nl_load_domain+0xdf5>
  40383c:	31 f6                	xor    %esi,%esi
  40383e:	e9 d0 fe ff ff       	jmpq   403713 <_nl_load_domain+0x443>
  403843:	0f 1f 44 00 00       	nopl   0x0(%rax,%rax,1)
  403848:	31 ff                	xor    %edi,%edi
  40384a:	e9 2d ff ff ff       	jmpq   40377c <_nl_load_domain+0x4ac>
  40384f:	90                   	nop
  403850:	4c 89 ff             	mov    %r15,%rdi
  403853:	e8 88 11 01 00       	callq  4149e0 <__cfree>
  403858:	e9 41 ff ff ff       	jmpq   40379e <_nl_load_domain+0x4ce>
  40385d:	0f 1f 00             	nopl   (%rax)
  403860:	85 c0                	test   %eax,%eax
  403862:	89 85 20 ff ff ff    	mov    %eax,-0xe0(%rbp)
  403868:	0f 84 92 fc ff ff    	je     403500 <_nl_load_domain+0x230>
  40386e:	41 8b 47 1c          	mov    0x1c(%r15),%eax
  403872:	41 8b 57 20          	mov    0x20(%r15),%edx
  403876:	89 85 08 ff ff ff    	mov    %eax,-0xf8(%rbp)
  40387c:	89 c1                	mov    %eax,%ecx
  40387e:	e9 0d fe ff ff       	jmpq   403690 <_nl_load_domain+0x3c0>
  403883:	45 85 f6             	test   %r14d,%r14d
  403886:	0f 84 a5 05 00 00    	je     403e31 <_nl_load_domain+0xb61>
  40388c:	41 8b 47 28          	mov    0x28(%r15),%eax
  403890:	0f c8                	bswap  %eax
  403892:	89 c0                	mov    %eax,%eax
  403894:	4c 01 f8             	add    %r15,%rax
  403897:	48 89 85 d8 fe ff ff 	mov    %rax,-0x128(%rbp)
  40389e:	41 8b 47 2c          	mov    0x2c(%r15),%eax
  4038a2:	0f c8                	bswap  %eax
  4038a4:	89 c0                	mov    %eax,%eax
  4038a6:	4c 01 f8             	add    %r15,%rax
  4038a9:	4c 89 ad e0 fe ff ff 	mov    %r13,-0x120(%rbp)
  4038b0:	44 8b a5 08 ff ff ff 	mov    -0xf8(%rbp),%r12d
  4038b7:	48 89 85 f0 fe ff ff 	mov    %rax,-0x110(%rbp)
  4038be:	8b 85 10 ff ff ff    	mov    -0xf0(%rbp),%eax
  4038c4:	4d 89 cd             	mov    %r9,%r13
  4038c7:	48 c7 85 10 ff ff ff 	movq   $0x0,-0xf0(%rbp)
  4038ce:	00 00 00 00 
  4038d2:	c7 85 00 ff ff ff 00 	movl   $0x0,-0x100(%rbp)
  4038d9:	00 00 00 
  4038dc:	4c 89 bd f8 fe ff ff 	mov    %r15,-0x108(%rbp)
  4038e3:	44 89 b5 04 ff ff ff 	mov    %r14d,-0xfc(%rbp)
--
  40390e:	0f 84 cc 04 00 00    	je     403de0 <_nl_load_domain+0xb10>
  403914:	45 85 ff             	test   %r15d,%r15d
  403917:	0f 84 95 08 00 00    	je     4041b2 <_nl_load_domain+0xee2>
  40391d:	48 8b 85 f0 fe ff ff 	mov    -0x110(%rbp),%rax
  403924:	48 8b 8d 10 ff ff ff 	mov    -0xf0(%rbp),%rcx
  40392b:	8b 14 88             	mov    (%rax,%rcx,4),%edx
  40392e:	0f ca                	bswap  %edx
  403930:	89 d2                	mov    %edx,%edx
  403932:	48 03 95 f8 fe ff ff 	add    -0x108(%rbp),%rdx
  403939:	8b 42 08             	mov    0x8(%rdx),%eax
  40393c:	0f c8                	bswap  %eax
  40393e:	83 f8 ff             	cmp    $0xffffffff,%eax
  403941:	0f 95 c0             	setne  %al
  403944:	84 c0                	test   %al,%al
  403946:	0f 84 c4 04 00 00    	je     403e10 <_nl_load_domain+0xb40>
  40394c:	8b 85 04 ff ff ff    	mov    -0xfc(%rbp),%eax
  403952:	31 db                	xor    %ebx,%ebx
  403954:	4c 8d 72 04          	lea    0x4(%rdx),%r14
  403958:	85 c0                	test   %eax,%eax
  40395a:	0f 85 45 04 00 00    	jne    403da5 <_nl_load_domain+0xad5>
  403960:	eb 25                	jmp    403987 <_nl_load_domain+0x6b7>
  403962:	66 0f 1f 44 00 00    	nopw   0x0(%rax,%rax,1)
  403968:	44 39 e0             	cmp    %r12d,%eax
  40396b:	0f 83 a6 04 00 00    	jae    403e17 <_nl_load_domain+0xb47>
  403971:	49 8b 7c c5 00       	mov    0x0(%r13,%rax,8),%rdi
  403976:	48 85 ff             	test   %rdi,%rdi
  403979:	74 5e                	je     4039d9 <_nl_load_domain+0x709>
  40397b:	e8 20 58 01 00       	callq  4191a0 <strlen>
  403980:	49 83 c6 08          	add    $0x8,%r14
  403984:	48 01 c3             	add    %rax,%rbx
  403987:	41 8b 16             	mov    (%r14),%edx
  40398a:	41 8b 46 04          	mov    0x4(%r14),%eax
  40398e:	48 01 d3             	add    %rdx,%rbx
  403991:	83 f8 ff             	cmp    $0xffffffff,%eax
  403994:	75 d2                	jne    403968 <_nl_load_domain+0x698>
  403996:	66 2e 0f 1f 84 00 00 	nopw   %cs:0x0(%rax,%rax,1)
  40399d:	00 00 00 
  4039a0:	4a 89 9c fd 30 ff ff 	mov    %rbx,-0xd0(%rbp,%r15,8)
  4039a7:	ff 
  4039a8:	49 83 c7 01          	add    $0x1,%r15
  4039ac:	49 83 ff 02          	cmp    $0x2,%r15
  4039b0:	0f 85 50 ff ff ff    	jne    403906 <_nl_load_domain+0x636>
  4039b6:	48 8b 85 38 ff ff ff 	mov    -0xc8(%rbp),%rax
  4039bd:	48 01 85 e8 fe ff ff 	add    %rax,-0x118(%rbp)
  4039c4:	83 85 00 ff ff ff 01 	addl   $0x1,-0x100(%rbp)
  4039cb:	48 8b 85 30 ff ff ff 	mov    -0xd0(%rbp),%rax
  4039d2:	48 01 85 e8 fe ff ff 	add    %rax,-0x118(%rbp)
  4039d9:	48 83 85 10 ff ff ff 	addq   $0x1,-0xf0(%rbp)
  4039e0:	01 
  4039e1:	8b 85 10 ff ff ff    	mov    -0xf0(%rbp),%eax
  4039e7:	39 85 20 ff ff ff    	cmp    %eax,-0xe0(%rbp)
  4039ed:	0f 87 10 ff ff ff    	ja     403903 <_nl_load_domain+0x633>
  4039f3:	83 bd 00 ff ff ff 00 	cmpl   $0x0,-0x100(%rbp)
  4039fa:	4d 89 e9             	mov    %r13,%r9
  4039fd:	4c 8b bd f8 fe ff ff 	mov    -0x108(%rbp),%r15
  403a04:	48 8b 9d 08 ff ff ff 	mov    -0xf8(%rbp),%rbx
  403a0b:	4c 8b ad e0 fe ff ff 	mov    -0x120(%rbp),%r13
  403a12:	0f 84 e8 fa ff ff    	je     403500 <_nl_load_domain+0x230>
  403a18:	8b 85 00 ff ff ff    	mov    -0x100(%rbp),%eax
  403a1e:	48 8b bd e8 fe ff ff 	mov    -0x118(%rbp),%rdi
  403a25:	4c 89 8d 10 ff ff ff 	mov    %r9,-0xf0(%rbp)
  403a2c:	01 c0                	add    %eax,%eax
  403a2e:	48 c1 e0 04          	shl    $0x4,%rax
  403a32:	48 01 c7             	add    %rax,%rdi
  403a35:	e8 26 09 01 00       	callq  414360 <__libc_malloc>
  403a3a:	48 85 c0             	test   %rax,%rax
  403a3d:	48 89 85 f8 fe ff ff 	mov    %rax,-0x108(%rbp)
  403a44:	4c 8b 8d 10 ff ff ff 	mov    -0xf0(%rbp),%r9
  403a4b:	0f 84 27 fd ff ff    	je     403778 <_nl_load_domain+0x4a8>
  403a51:	8b 85 00 ff ff ff    	mov    -0x100(%rbp),%eax
  403a57:	48 8b 8d f8 fe ff ff 	mov    -0x108(%rbp),%rcx
  403a5e:	4c 8b a5 d0 fe ff ff 	mov    -0x130(%rbp),%r12
  403a65:	4c 89 bd 08 ff ff ff 	mov    %r15,-0xf8(%rbp)
  403a6c:	4d 89 cf             	mov    %r9,%r15
  403a6f:	48 89 9d a0 fe ff ff 	mov    %rbx,-0x160(%rbp)
  403a76:	c7 85 cc fe ff ff 00 	movl   $0x0,-0x134(%rbp)
  403a7d:	00 00 00 
  403a80:	49 89 4d 20          	mov    %rcx,0x20(%r13)
  403a84:	4c 89 ad b0 fe ff ff 	mov    %r13,-0x150(%rbp)
  403a8b:	48 c1 e0 04          	shl    $0x4,%rax
  403a8f:	48 01 c1             	add    %rax,%rcx
  403a92:	4c 8d 34 01          	lea    (%rcx,%rax,1),%r14
  403a96:	41 8b 45 18          	mov    0x18(%r13),%eax
  403a9a:	48 89 8d c0 fe ff ff 	mov    %rcx,-0x140(%rbp)
  403aa1:	4d 01 f4             	add    %r14,%r12
  403aa4:	4c 89 b5 a8 fe ff ff 	mov    %r14,-0x158(%rbp)
  403aab:	89 85 04 ff ff ff    	mov    %eax,-0xfc(%rbp)
  403ab1:	31 c0                	xor    %eax,%eax
  403ab3:	48 89 c3             	mov    %rax,%rbx
--
  403ac0:	0f 84 82 03 00 00    	je     403e48 <_nl_load_domain+0xb78>
  403ac6:	85 c9                	test   %ecx,%ecx
  403ac8:	0f 84 ce 07 00 00    	je     40429c <_nl_load_domain+0xfcc>
  403ace:	48 8b 85 f0 fe ff ff 	mov    -0x110(%rbp),%rax
  403ad5:	8b 04 98             	mov    (%rax,%rbx,4),%eax
  403ad8:	0f c8                	bswap  %eax
  403ada:	89 c0                	mov    %eax,%eax
  403adc:	48 03 85 08 ff ff ff 	add    -0xf8(%rbp),%rax
  403ae3:	8b 50 08             	mov    0x8(%rax),%edx
  403ae6:	0f ca                	bswap  %edx
  403ae8:	83 fa ff             	cmp    $0xffffffff,%edx
  403aeb:	0f 95 c2             	setne  %dl
  403aee:	84 d2                	test   %dl,%dl
  403af0:	74 25                	je     403b17 <_nl_load_domain+0x847>
  403af2:	48 83 c0 04          	add    $0x4,%rax
  403af6:	85 f6                	test   %esi,%esi
  403af8:	0f 85 d3 02 00 00    	jne    403dd1 <_nl_load_domain+0xb01>
  403afe:	eb 0f                	jmp    403b0f <_nl_load_domain+0x83f>
  403b00:	49 83 3c d7 00       	cmpq   $0x0,(%r15,%rdx,8)
  403b05:	0f 84 00 01 00 00    	je     403c0b <_nl_load_domain+0x93b>
  403b0b:	48 83 c0 08          	add    $0x8,%rax
  403b0f:	8b 50 04             	mov    0x4(%rax),%edx
  403b12:	83 fa ff             	cmp    $0xffffffff,%edx
  403b15:	75 e9                	jne    403b00 <_nl_load_domain+0x830>
  403b17:	83 c1 01             	add    $0x1,%ecx
  403b1a:	83 f9 02             	cmp    $0x2,%ecx
  403b1d:	75 9f                	jne    403abe <_nl_load_domain+0x7ee>
  403b1f:	8b 85 cc fe ff ff    	mov    -0x134(%rbp),%eax
  403b25:	c7 85 10 ff ff ff 00 	movl   $0x0,-0xf0(%rbp)
  403b2c:	00 00 00 
  403b2f:	48 89 9d d0 fe ff ff 	mov    %rbx,-0x130(%rbp)
  403b36:	48 89 85 e0 fe ff ff 	mov    %rax,-0x120(%rbp)
  403b3d:	48 c1 a5 e0 fe ff ff 	shlq   $0x4,-0x120(%rbp)
  403b44:	04 
  403b45:	44 8b 9d 04 ff ff ff 	mov    -0xfc(%rbp),%r11d
  403b4c:	45 85 db             	test   %r11d,%r11d
  403b4f:	0f 84 2a 03 00 00    	je     403e7f <_nl_load_domain+0xbaf>
  403b55:	44 8b 95 10 ff ff ff 	mov    -0xf0(%rbp),%r10d
  403b5c:	45 85 d2             	test   %r10d,%r10d
  403b5f:	0f 84 ef 06 00 00    	je     404254 <_nl_load_domain+0xf84>
  403b65:	48 8b 85 f0 fe ff ff 	mov    -0x110(%rbp),%rax
  403b6c:	48 8b 8d d0 fe ff ff 	mov    -0x130(%rbp),%rcx
  403b73:	8b 04 88             	mov    (%rax,%rcx,4),%eax
  403b76:	0f c8                	bswap  %eax
  403b78:	89 c1                	mov    %eax,%ecx
  403b7a:	48 03 8d 08 ff ff ff 	add    -0xf8(%rbp),%rcx
  403b81:	44 8b 29             	mov    (%rcx),%r13d
  403b84:	41 0f cd             	bswap  %r13d
  403b87:	45 89 ed             	mov    %r13d,%r13d
  403b8a:	8b bd 10 ff ff ff    	mov    -0xf0(%rbp),%edi
  403b90:	4c 03 ad 08 ff ff ff 	add    -0xf8(%rbp),%r13
  403b97:	4c 8b b5 f8 fe ff ff 	mov    -0x108(%rbp),%r14
  403b9e:	44 8b 85 04 ff ff ff 	mov    -0xfc(%rbp),%r8d
  403ba5:	85 ff                	test   %edi,%edi
  403ba7:	4c 0f 45 b5 c0 fe ff 	cmovne -0x140(%rbp),%r14
  403bae:	ff 
  403baf:	4c 03 b5 e0 fe ff ff 	add    -0x120(%rbp),%r14
  403bb6:	45 85 c0             	test   %r8d,%r8d
  403bb9:	4c 89 b5 e8 fe ff ff 	mov    %r14,-0x118(%rbp)
  403bc0:	0f 84 a7 02 00 00    	je     403e6d <_nl_load_domain+0xb9d>
  403bc6:	8b 41 08             	mov    0x8(%rcx),%eax
  403bc9:	0f c8                	bswap  %eax
  403bcb:	83 f8 ff             	cmp    $0xffffffff,%eax
  403bce:	0f 85 f4 03 00 00    	jne    403fc8 <_nl_load_domain+0xcf8>
  403bd4:	8b 41 04             	mov    0x4(%rcx),%eax
  403bd7:	0f c8                	bswap  %eax
  403bd9:	89 c0                	mov    %eax,%eax
  403bdb:	48 8b 8d e8 fe ff ff 	mov    -0x118(%rbp),%rcx
  403be2:	48 89 01             	mov    %rax,(%rcx)
  403be5:	4c 89 69 08          	mov    %r13,0x8(%rcx)
  403be9:	83 85 10 ff ff ff 01 	addl   $0x1,-0xf0(%rbp)
  403bf0:	83 bd 10 ff ff ff 02 	cmpl   $0x2,-0xf0(%rbp)
  403bf7:	0f 85 48 ff ff ff    	jne    403b45 <_nl_load_domain+0x875>
  403bfd:	83 85 cc fe ff ff 01 	addl   $0x1,-0x134(%rbp)
  403c04:	48 8b 9d d0 fe ff ff 	mov    -0x130(%rbp),%rbx
  403c0b:	48 83 c3 01          	add    $0x1,%rbx
  403c0f:	39 9d 20 ff ff ff    	cmp    %ebx,-0xe0(%rbp)
  403c15:	0f 87 9b fe ff ff    	ja     403ab6 <_nl_load_domain+0x7e6>
  403c1b:	8b 85 cc fe ff ff    	mov    -0x134(%rbp),%eax
  403c21:	39 85 00 ff ff ff    	cmp    %eax,-0x100(%rbp)
  403c27:	4c 8b bd 08 ff ff ff 	mov    -0xf8(%rbp),%r15
  403c2e:	4c 8b ad b0 fe ff ff 	mov    -0x150(%rbp),%r13
  403c35:	4c 8b b5 a8 fe ff ff 	mov    -0x158(%rbp),%r14
  403c3c:	48 8b 9d a0 fe ff ff 	mov    -0x160(%rbp),%rbx
  403c43:	0f 85 64 05 00 00    	jne    4041ad <_nl_load_domain+0xedd>
  403c49:	41 8b 45 58          	mov    0x58(%r13),%eax
  403c4d:	85 c0                	test   %eax,%eax
  403c4f:	74 73                	je     403cc4 <_nl_load_domain+0x9f4>
  403c51:	41 83 7d 68 00       	cmpl   $0x0,0x68(%r13)
  403c56:	49 8b 55 60          	mov    0x60(%r13),%rdx
  403c5a:	0f 85 b7 04 00 00    	jne    404117 <_nl_load_domain+0xe47>
  403c60:	49 8d 4e 10          	lea    0x10(%r14),%rcx
  403c64:	48 39 ca             	cmp    %rcx,%rdx
  403c67:	48 8d 4a 10          	lea    0x10(%rdx),%rcx
  403c6b:	40 0f 93 c6          	setae  %sil
  403c6f:	49 39 ce             	cmp    %rcx,%r14
  403c72:	0f 93 c1             	setae  %cl
  403c75:	40 08 ce             	or     %cl,%sil
  403c78:	0f 84 60 05 00 00    	je     4041de <_nl_load_domain+0xf0e>
  403c7e:	83 f8 06             	cmp    $0x6,%eax
  403c81:	0f 86 57 05 00 00    	jbe    4041de <_nl_load_domain+0xf0e>
  403c87:	89 c7                	mov    %eax,%edi
  403c89:	31 f6                	xor    %esi,%esi
  403c8b:	c1 ef 02             	shr    $0x2,%edi
  403c8e:	8d 0c bd 00 00 00 00 	lea    0x0(,%rdi,4),%ecx
  403c95:	49 89 f0             	mov    %rsi,%r8
  403c98:	48 83 c6 01          	add    $0x1,%rsi
  403c9c:	49 c1 e0 04          	shl    $0x4,%r8
  403ca0:	39 f7                	cmp    %esi,%edi
  403ca2:	f3 42 0f 6f 04 02    	movdqu (%rdx,%r8,1),%xmm0
  403ca8:	f3 43 0f 7f 04 06    	movdqu %xmm0,(%r14,%r8,1)
  403cae:	77 e5                	ja     403c95 <_nl_load_domain+0x9c5>
  403cb0:	39 c1                	cmp    %eax,%ecx
  403cb2:	74 10                	je     403cc4 <_nl_load_domain+0x9f4>
  403cb4:	89 ce                	mov    %ecx,%esi
  403cb6:	83 c1 01             	add    $0x1,%ecx
  403cb9:	8b 3c b2             	mov    (%rdx,%rsi,4),%edi
  403cbc:	39 c8                	cmp    %ecx,%eax
  403cbe:	41 89 3c b6          	mov    %edi,(%r14,%rsi,4)
  403cc2:	77 f0                	ja     403cb4 <_nl_load_domain+0x9e4>
  403cc4:	4c 8b 8d f8 fe ff ff 	mov    -0x108(%rbp),%r9
  403ccb:	48 89 9d 10 ff ff ff 	mov    %rbx,-0xf0(%rbp)
  403cd2:	45 31 e4             	xor    %r12d,%r12d
  403cd5:	4c 89 eb             	mov    %r13,%rbx
  403cd8:	4d 89 cd             	mov    %r9,%r13
  403cdb:	49 8b 7d 08          	mov    0x8(%r13),%rdi
  403cdf:	e8 ac 2c 00 00       	callq  406990 <__hash_string>
  403ce4:	44 8b 43 58          	mov    0x58(%rbx),%r8d
  403ce8:	31 d2                	xor    %edx,%edx
  403cea:	89 c7                	mov    %eax,%edi
  403cec:	41 f7 f0             	div    %r8d
  403cef:	45 8d 48 fe          	lea    -0x2(%r8),%r9d
  403cf3:	89 f8                	mov    %edi,%eax
  403cf5:	89 d1                	mov    %edx,%ecx
  403cf7:	31 d2                	xor    %edx,%edx
  403cf9:	41 f7 f1             	div    %r9d
  403cfc:	8d 7a 01             	lea    0x1(%rdx),%edi
  403cff:	44 89 c2             	mov    %r8d,%edx
  403d02:	89 f8                	mov    %edi,%eax
  403d04:	29 fa                	sub    %edi,%edx
--
  403d0c:	eb 10                	jmp    403d1e <_nl_load_domain+0xa4e>
  403d0e:	66 90                	xchg   %ax,%ax
  403d10:	42 8d 04 01          	lea    (%rcx,%r8,1),%eax
  403d14:	8d 34 39             	lea    (%rcx,%rdi,1),%esi
  403d17:	39 d1                	cmp    %edx,%ecx
  403d19:	0f 42 c6             	cmovb  %esi,%eax
  403d1c:	89 c1                	mov    %eax,%ecx
  403d1e:	89 c8                	mov    %ecx,%eax
  403d20:	49 8d 04 86          	lea    (%r14,%rax,4),%rax
  403d24:	8b 30                	mov    (%rax),%esi
  403d26:	85 f6                	test   %esi,%esi
  403d28:	75 e6                	jne    403d10 <_nl_load_domain+0xa40>
  403d2a:	8b 53 28             	mov    0x28(%rbx),%edx
  403d2d:	49 83 c5 10          	add    $0x10,%r13
  403d31:	41 8d 54 14 01       	lea    0x1(%r12,%rdx,1),%edx
  403d36:	41 83 c4 01          	add    $0x1,%r12d
  403d3a:	44 3b a5 00 ff ff ff 	cmp    -0x100(%rbp),%r12d
  403d41:	89 10                	mov    %edx,(%rax)
  403d43:	75 96                	jne    403cdb <_nl_load_domain+0xa0b>
  403d45:	48 8b 85 f8 fe ff ff 	mov    -0x108(%rbp),%rax
  403d4c:	49 89 dd             	mov    %rbx,%r13
  403d4f:	48 8b 9d 10 ff ff ff 	mov    -0xf0(%rbp),%rbx
  403d56:	45 89 65 40          	mov    %r12d,0x40(%r13)
  403d5a:	4d 89 75 60          	mov    %r14,0x60(%r13)
  403d5e:	41 c7 45 68 00 00 00 	movl   $0x0,0x68(%r13)
  403d65:	00 
  403d66:	49 89 45 48          	mov    %rax,0x48(%r13)
  403d6a:	48 8b 85 c0 fe ff ff 	mov    -0x140(%rbp),%rax
  403d71:	49 89 45 50          	mov    %rax,0x50(%r13)
  403d75:	e9 9e f7 ff ff       	jmpq   403518 <_nl_load_domain+0x248>
  403d7a:	66 0f 1f 44 00 00    	nopw   0x0(%rax,%rax,1)
  403d80:	44 39 e0             	cmp    %r12d,%eax
  403d83:	0f 83 8e 00 00 00    	jae    403e17 <_nl_load_domain+0xb47>
  403d89:	89 c0                	mov    %eax,%eax
  403d8b:	49 8b 7c c5 00       	mov    0x0(%r13,%rax,8),%rdi
  403d90:	48 85 ff             	test   %rdi,%rdi
  403d93:	0f 84 40 fc ff ff    	je     4039d9 <_nl_load_domain+0x709>
  403d99:	e8 02 54 01 00       	callq  4191a0 <strlen>
  403d9e:	49 83 c6 08          	add    $0x8,%r14
  403da2:	48 01 c3             	add    %rax,%rbx
  403da5:	41 8b 16             	mov    (%r14),%edx
  403da8:	41 8b 46 04          	mov    0x4(%r14),%eax
  403dac:	0f ca                	bswap  %edx
  403dae:	0f c8                	bswap  %eax
  403db0:	89 d2                	mov    %edx,%edx
  403db2:	48 01 d3             	add    %rdx,%rbx
  403db5:	83 f8 ff             	cmp    $0xffffffff,%eax
  403db8:	75 c6                	jne    403d80 <_nl_load_domain+0xab0>
  403dba:	e9 e1 fb ff ff       	jmpq   4039a0 <_nl_load_domain+0x6d0>
  403dbf:	90                   	nop
  403dc0:	89 d2                	mov    %edx,%edx
  403dc2:	49 83 3c d7 00       	cmpq   $0x0,(%r15,%rdx,8)
  403dc7:	0f 84 3e fe ff ff    	je     403c0b <_nl_load_domain+0x93b>
  403dcd:	48 83 c0 08          	add    $0x8,%rax
  403dd1:	8b 50 04             	mov    0x4(%rax),%edx
  403dd4:	0f ca                	bswap  %edx
  403dd6:	83 fa ff             	cmp    $0xffffffff,%edx
  403dd9:	75 e5                	jne    403dc0 <_nl_load_domain+0xaf0>
  403ddb:	e9 37 fd ff ff       	jmpq   403b17 <_nl_load_domain+0x847>
  403de0:	45 85 ff             	test   %r15d,%r15d
  403de3:	0f 84 df 03 00 00    	je     4041c8 <_nl_load_domain+0xef8>
  403de9:	48 8b 85 f0 fe ff ff 	mov    -0x110(%rbp),%rax
  403df0:	48 8b 8d 10 ff ff ff 	mov    -0xf0(%rbp),%rcx
  403df7:	8b 14 88             	mov    (%rax,%rcx,4),%edx
  403dfa:	48 03 95 f8 fe ff ff 	add    -0x108(%rbp),%rdx
  403e01:	83 7a 08 ff          	cmpl   $0xffffffff,0x8(%rdx)
  403e05:	0f 95 c0             	setne  %al
  403e08:	e9 37 fb ff ff       	jmpq   403944 <_nl_load_domain+0x674>
  403e0d:	0f 1f 00             	nopl   (%rax)
  403e10:	31 db                	xor    %ebx,%ebx
  403e12:	e9 89 fb ff ff       	jmpq   4039a0 <_nl_load_domain+0x6d0>
  403e17:	4c 8b bd f8 fe ff ff 	mov    -0x108(%rbp),%r15
  403e1e:	4c 8b ad e0 fe ff ff 	mov    -0x120(%rbp),%r13
  403e25:	48 8b 9d 08 ff ff ff 	mov    -0xf8(%rbp),%rbx
  403e2c:	e9 47 f9 ff ff       	jmpq   403778 <_nl_load_domain+0x4a8>
  403e31:	41 8b 47 28          	mov    0x28(%r15),%eax
  403e35:	4c 01 f8             	add    %r15,%rax
  403e38:	48 89 85 d8 fe ff ff 	mov    %rax,-0x128(%rbp)
  403e3f:	41 8b 47 2c          	mov    0x2c(%r15),%eax
  403e43:	e9 5e fa ff ff       	jmpq   4038a6 <_nl_load_domain+0x5d6>
  403e48:	85 c9                	test   %ecx,%ecx
  403e4a:	0f 84 5b 04 00 00    	je     4042ab <_nl_load_domain+0xfdb>
  403e50:	48 8b 85 f0 fe ff ff 	mov    -0x110(%rbp),%rax
  403e57:	8b 04 98             	mov    (%rax,%rbx,4),%eax
  403e5a:	48 03 85 08 ff ff ff 	add    -0xf8(%rbp),%rax
  403e61:	83 78 08 ff          	cmpl   $0xffffffff,0x8(%rax)
  403e65:	0f 95 c2             	setne  %dl
  403e68:	e9 81 fc ff ff       	jmpq   403aee <_nl_load_domain+0x81e>
  403e6d:	83 79 08 ff          	cmpl   $0xffffffff,0x8(%rcx)
  403e71:	0f 85 da 01 00 00    	jne    404051 <_nl_load_domain+0xd81>
  403e77:	8b 41 04             	mov    0x4(%rcx),%eax
  403e7a:	e9 5c fd ff ff       	jmpq   403bdb <_nl_load_domain+0x90b>
  403e7f:	44 8b 8d 10 ff ff ff 	mov    -0xf0(%rbp),%r9d
  403e86:	45 85 c9             	test   %r9d,%r9d
  403e89:	0f 84 af 03 00 00    	je     40423e <_nl_load_domain+0xf6e>
  403e8f:	48 8b 85 f0 fe ff ff 	mov    -0x110(%rbp),%rax
  403e96:	48 8b 8d d0 fe ff ff 	mov    -0x130(%rbp),%rcx
  403e9d:	8b 0c 88             	mov    (%rax,%rcx,4),%ecx
  403ea0:	48 03 8d 08 ff ff ff 	add    -0xf8(%rbp),%rcx
  403ea7:	44 8b 29             	mov    (%rcx),%r13d
  403eaa:	e9 db fc ff ff       	jmpq   403b8a <_nl_load_domain+0x8ba>
  403eaf:	80 78 05 00          	cmpb   $0x0,0x5(%rax)
  403eb3:	0f 85 83 f9 ff ff    	jne    40383c <_nl_load_domain+0x56c>
  403eb9:	45 84 c0             	test   %r8b,%r8b
  403ebc:	0f 85 cd 02 00 00    	jne    40418f <_nl_load_domain+0xebf>
  403ec2:	80 bd 04 ff ff ff 00 	cmpb   $0x0,-0xfc(%rbp)
  403ec9:	0f 85 b6 02 00 00    	jne    404185 <_nl_load_domain+0xeb5>
  403ecf:	40 80 ff 6f          	cmp    $0x6f,%dil
  403ed3:	0f 84 c0 02 00 00    	je     404199 <_nl_load_domain+0xec9>
  403ed9:	40 80 ff 75          	cmp    $0x75,%dil
  403edd:	0f 84 98 02 00 00    	je     40417b <_nl_load_domain+0xeab>
  403ee3:	40 80 ff 78          	cmp    $0x78,%dil
  403ee7:	0f 84 b6 02 00 00    	je     4041a3 <_nl_load_domain+0xed3>
  403eed:	40 80 ff 58          	cmp    $0x58,%dil
  403ef1:	0f 85 b6 02 00 00    	jne    4041ad <_nl_load_domain+0xedd>
  403ef7:	be f1 46 49 00       	mov    $0x4946f1,%esi
  403efc:	e9 12 f8 ff ff       	jmpq   403713 <_nl_load_domain+0x443>
  403f01:	80 78 05 36          	cmpb   $0x36,0x5(%rax)
  403f05:	0f 85 31 f9 ff ff    	jne    40383c <_nl_load_domain+0x56c>
  403f0b:	80 78 06 00          	cmpb   $0x0,0x6(%rax)
  403f0f:	0f 85 27 f9 ff ff    	jne    40383c <_nl_load_domain+0x56c>
  403f15:	45 84 c0             	test   %r8b,%r8b
  403f18:	0f 85 74 03 00 00    	jne    404292 <_nl_load_domain+0xfc2>
  403f1e:	80 bd 04 ff ff ff 00 	cmpb   $0x0,-0xfc(%rbp)
  403f25:	0f 85 5d 03 00 00    	jne    404288 <_nl_load_domain+0xfb8>
  403f2b:	40 80 ff 6f          	cmp    $0x6f,%dil
  403f2f:	0f 84 49 03 00 00    	je     40427e <_nl_load_domain+0xfae>
  403f35:	40 80 ff 75          	cmp    $0x75,%dil
  403f39:	0f 84 35 03 00 00    	je     404274 <_nl_load_domain+0xfa4>
  403f3f:	40 80 ff 78          	cmp    $0x78,%dil
  403f43:	0f 84 21 03 00 00    	je     40426a <_nl_load_domain+0xf9a>
  403f49:	40 80 ff 58          	cmp    $0x58,%dil
  403f4d:	0f 85 5a 02 00 00    	jne    4041ad <_nl_load_domain+0xedd>
  403f53:	be f1 46 49 00       	mov    $0x4946f1,%esi
  403f58:	e9 b6 f7 ff ff       	jmpq   403713 <_nl_load_domain+0x443>
  403f5d:	0f 1f 00             	nopl   (%rax)
  403f60:	40 80 fe 36          	cmp    $0x36,%sil
  403f64:	0f 85 82 03 00 00    	jne    4042ec <_nl_load_domain+0x101c>
  403f6a:	31 f6                	xor    %esi,%esi
  403f6c:	80 78 05 34          	cmpb   $0x34,0x5(%rax)
  403f70:	0f 85 9d f7 ff ff    	jne    403713 <_nl_load_domain+0x443>
  403f76:	80 78 06 00          	cmpb   $0x0,0x6(%rax)
  403f7a:	0f 85 93 f7 ff ff    	jne    403713 <_nl_load_domain+0x443>
  403f80:	45 84 c0             	test   %r8b,%r8b
  403f83:	0f 85 59 03 00 00    	jne    4042e2 <_nl_load_domain+0x1012>
  403f89:	80 bd 04 ff ff ff 00 	cmpb   $0x0,-0xfc(%rbp)
  403f90:	0f 85 42 03 00 00    	jne    4042d8 <_nl_load_domain+0x1008>
  403f96:	40 80 ff 6f          	cmp    $0x6f,%dil
  403f9a:	0f 84 2e 03 00 00    	je     4042ce <_nl_load_domain+0xffe>
  403fa0:	40 80 ff 75          	cmp    $0x75,%dil
  403fa4:	0f 84 1a 03 00 00    	je     4042c4 <_nl_load_domain+0xff4>
  403faa:	40 80 ff 78          	cmp    $0x78,%dil
  403fae:	0f 84 06 03 00 00    	je     4042ba <_nl_load_domain+0xfea>
  403fb4:	40 80 ff 58          	cmp    $0x58,%dil
  403fb8:	0f 85 ef 01 00 00    	jne    4041ad <_nl_load_domain+0xedd>
  403fbe:	be 0b 37 49 00       	mov    $0x49370b,%esi
  403fc3:	e9 4b f7 ff ff       	jmpq   403713 <_nl_load_domain+0x443>
  403fc8:	48 8b 85 e8 fe ff ff 	mov    -0x118(%rbp),%rax
  403fcf:	4c 8d 71 04          	lea    0x4(%rcx),%r14
  403fd3:	4c 89 ad b8 fe ff ff 	mov    %r13,-0x148(%rbp)
  403fda:	4c 89 60 08          	mov    %r12,0x8(%rax)
  403fde:	eb 2b                	jmp    40400b <_nl_load_domain+0xd3b>
  403fe0:	83 fb ff             	cmp    $0xffffffff,%ebx
  403fe3:	74 56                	je     40403b <_nl_load_domain+0xd6b>
  403fe5:	89 db                	mov    %ebx,%ebx
  403fe7:	49 83 c6 08          	add    $0x8,%r14
  403feb:	4d 8b 2c df          	mov    (%r15,%rbx,8),%r13
  403fef:	4c 89 ef             	mov    %r13,%rdi
  403ff2:	e8 a9 51 01 00       	callq  4191a0 <strlen>
  403ff7:	48 89 c3             	mov    %rax,%rbx
  403ffa:	4c 89 e7             	mov    %r12,%rdi
  403ffd:	48 89 c2             	mov    %rax,%rdx
  404000:	4c 89 ee             	mov    %r13,%rsi
  404003:	49 01 dc             	add    %rbx,%r12
  404006:	e8 d5 db 01 00       	callq  421be0 <memcpy>
  40400b:	41 8b 06             	mov    (%r14),%eax
  40400e:	41 8b 5e 04          	mov    0x4(%r14),%ebx
  404012:	0f c8                	bswap  %eax
  404014:	0f cb                	bswap  %ebx
  404016:	85 c0                	test   %eax,%eax
  404018:	74 c6                	je     403fe0 <_nl_load_domain+0xd10>
  40401a:	48 8b b5 b8 fe ff ff 	mov    -0x148(%rbp),%rsi
  404021:	41 89 c5             	mov    %eax,%r13d
  404024:	4c 89 e7             	mov    %r12,%rdi
  404027:	4c 89 ea             	mov    %r13,%rdx
  40402a:	4d 01 ec             	add    %r13,%r12
  40402d:	e8 ae db 01 00       	callq  421be0 <memcpy>
  404032:	4c 01 ad b8 fe ff ff 	add    %r13,-0x148(%rbp)
  404039:	eb a5                	jmp    403fe0 <_nl_load_domain+0xd10>
  40403b:	48 8b 8d e8 fe ff ff 	mov    -0x118(%rbp),%rcx
  404042:	4c 89 e0             	mov    %r12,%rax
  404045:	48 2b 41 08          	sub    0x8(%rcx),%rax
  404049:	48 89 01             	mov    %rax,(%rcx)
  40404c:	e9 98 fb ff ff       	jmpq   403be9 <_nl_load_domain+0x919>
  404051:	48 8b 85 e8 fe ff ff 	mov    -0x118(%rbp),%rax
  404058:	4c 8d 71 04          	lea    0x4(%rcx),%r14
  40405c:	4c 89 ad b8 fe ff ff 	mov    %r13,-0x148(%rbp)
  404063:	4c 89 60 08          	mov    %r12,0x8(%rax)
  404067:	eb 30                	jmp    404099 <_nl_load_domain+0xdc9>
  404069:	0f 1f 80 00 00 00 00 	nopl   0x0(%rax)
  404070:	83 fb ff             	cmp    $0xffffffff,%ebx
  404073:	74 c6                	je     40403b <_nl_load_domain+0xd6b>
  404075:	4d 8b 2c df          	mov    (%r15,%rbx,8),%r13
  404079:	49 83 c6 08          	add    $0x8,%r14
  40407d:	4c 89 ef             	mov    %r13,%rdi
  404080:	e8 1b 51 01 00       	callq  4191a0 <strlen>
  404085:	48 89 c3             	mov    %rax,%rbx
  404088:	4c 89 e7             	mov    %r12,%rdi
  40408b:	48 89 c2             	mov    %rax,%rdx
  40408e:	4c 89 ee             	mov    %r13,%rsi
  404091:	49 01 dc             	add    %rbx,%r12
  404094:	e8 47 db 01 00       	callq  421be0 <memcpy>
  404099:	41 8b 06             	mov    (%r14),%eax
  40409c:	41 8b 5e 04          	mov    0x4(%r14),%ebx
  4040a0:	85 c0                	test   %eax,%eax
  4040a2:	74 cc                	je     404070 <_nl_load_domain+0xda0>
  4040a4:	48 8b b5 b8 fe ff ff 	mov    -0x148(%rbp),%rsi
  4040ab:	41 89 c5             	mov    %eax,%r13d
  4040ae:	4c 89 e7             	mov    %r12,%rdi
  4040b1:	4c 89 ea             	mov    %r13,%rdx
  4040b4:	4d 01 ec             	add    %r13,%r12
  4040b7:	e8 24 db 01 00       	callq  421be0 <memcpy>
  4040bc:	4c 01 ad b8 fe ff ff 	add    %r13,-0x148(%rbp)
  4040c3:	eb ab                	jmp    404070 <_nl_load_domain+0xda0>
  4040c5:	80 78 06 00          	cmpb   $0x0,0x6(%rax)
  4040c9:	0f 85 6d f7 ff ff    	jne    40383c <_nl_load_domain+0x56c>
  4040cf:	45 84 c0             	test   %r8b,%r8b
  4040d2:	0f 85 44 01 00 00    	jne    40421c <_nl_load_domain+0xf4c>
  4040d8:	80 bd 04 ff ff ff 00 	cmpb   $0x0,-0xfc(%rbp)
  4040df:	0f 85 2d 01 00 00    	jne    404212 <_nl_load_domain+0xf42>
  4040e5:	40 80 ff 6f          	cmp    $0x6f,%dil
  4040e9:	0f 84 19 01 00 00    	je     404208 <_nl_load_domain+0xf38>
  4040ef:	40 80 ff 75          	cmp    $0x75,%dil
  4040f3:	0f 84 05 01 00 00    	je     4041fe <_nl_load_domain+0xf2e>
  4040f9:	40 80 ff 78          	cmp    $0x78,%dil
  4040fd:	0f 84 f1 00 00 00    	je     4041f4 <_nl_load_domain+0xf24>
  404103:	40 80 ff 58          	cmp    $0x58,%dil
  404107:	0f 85 a0 00 00 00    	jne    4041ad <_nl_load_domain+0xedd>
  40410d:	be f1 46 49 00       	mov    $0x4946f1,%esi
  404112:	e9 fc f5 ff ff       	jmpq   403713 <_nl_load_domain+0x443>
  404117:	31 c9                	xor    %ecx,%ecx
  404119:	8b 34 8a             	mov    (%rdx,%rcx,4),%esi
  40411c:	0f ce                	bswap  %esi
  40411e:	41 89 34 8e          	mov    %esi,(%r14,%rcx,4)
  404122:	48 83 c1 01          	add    $0x1,%rcx
  404126:	39 c8                	cmp    %ecx,%eax
  404128:	77 ef                	ja     404119 <_nl_load_domain+0xe49>
  40412a:	e9 95 fb ff ff       	jmpq   403cc4 <_nl_load_domain+0x9f4>
  40412f:	84 d2                	test   %dl,%dl
  404131:	0f 84 0e f3 ff ff    	je     403445 <_nl_load_domain+0x175>
  404137:	48 8b b5 18 ff ff ff 	mov    -0xe8(%rbp),%rsi
  40413e:	4c 89 ff             	mov    %r15,%rdi
  404141:	e8 3a 08 03 00       	callq  434980 <__munmap>
  404146:	e9 2f f4 ff ff       	jmpq   40357a <_nl_load_domain+0x2aa>
  40414b:	0f 1f 44 00 00       	nopl   0x0(%rax,%rax,1)
  404150:	49 63 fc             	movslq %r12d,%rdi
  404153:	b8 03 00 00 00       	mov    $0x3,%eax
  404158:	0f 05                	syscall 
  40415a:	41 8b 07             	mov    (%r15),%eax
  40415d:	3d de 12 04 95       	cmp    $0x950412de,%eax
  404162:	41 0f 95 c4          	setne  %r12b
  404166:	0f 85 ba 00 00 00    	jne    404226 <_nl_load_domain+0xf56>
  40416c:	c7 85 24 ff ff ff 00 	movl   $0x0,-0xdc(%rbp)
  404173:	00 00 00 
  404176:	e9 d4 f2 ff ff       	jmpq   40344f <_nl_load_domain+0x17f>
  40417b:	be 54 af 4a 00       	mov    $0x4aaf54,%esi
  404180:	e9 8e f5 ff ff       	jmpq   403713 <_nl_load_domain+0x443>
  404185:	be c5 7e 49 00       	mov    $0x497ec5,%esi
  40418a:	e9 84 f5 ff ff       	jmpq   403713 <_nl_load_domain+0x443>
  40418f:	be 42 0e 4b 00       	mov    $0x4b0e42,%esi
  404194:	e9 7a f5 ff ff       	jmpq   403713 <_nl_load_domain+0x443>
  404199:	be 16 78 49 00       	mov    $0x497816,%esi
  40419e:	e9 70 f5 ff ff       	jmpq   403713 <_nl_load_domain+0x443>
  4041a3:	be ba 78 49 00       	mov    $0x4978ba,%esi
  4041a8:	e9 66 f5 ff ff       	jmpq   403713 <_nl_load_domain+0x443>
  4041ad:	e8 2e 28 00 00       	callq  4069e0 <abort>
  4041b2:	48 8b 85 d8 fe ff ff 	mov    -0x128(%rbp),%rax
  4041b9:	48 8b 8d 10 ff ff ff 	mov    -0xf0(%rbp),%rcx
  4041c0:	8b 14 88             	mov    (%rax,%rcx,4),%edx
  4041c3:	e9 66 f7 ff ff       	jmpq   40392e <_nl_load_domain+0x65e>
  4041c8:	48 8b 85 d8 fe ff ff 	mov    -0x128(%rbp),%rax
  4041cf:	48 8b 8d 10 ff ff ff 	mov    -0xf0(%rbp),%rcx
  4041d6:	8b 14 88             	mov    (%rax,%rcx,4),%edx
  4041d9:	e9 1c fc ff ff       	jmpq   403dfa <_nl_load_domain+0xb2a>
  4041de:	31 c9                	xor    %ecx,%ecx
  4041e0:	8b 34 8a             	mov    (%rdx,%rcx,4),%esi
  4041e3:	41 89 34 8e          	mov    %esi,(%r14,%rcx,4)
  4041e7:	48 83 c1 01          	add    $0x1,%rcx
  4041eb:	39 c8                	cmp    %ecx,%eax
  4041ed:	77 f1                	ja     4041e0 <_nl_load_domain+0xf10>
  4041ef:	e9 d0 fa ff ff       	jmpq   403cc4 <_nl_load_domain+0x9f4>
  4041f4:	be ba 78 49 00       	mov    $0x4978ba,%esi
  4041f9:	e9 15 f5 ff ff       	jmpq   403713 <_nl_load_domain+0x443>
  4041fe:	be 54 af 4a 00       	mov    $0x4aaf54,%esi
  404203:	e9 0b f5 ff ff       	jmpq   403713 <_nl_load_domain+0x443>
  404208:	be 16 78 49 00       	mov    $0x497816,%esi
  40420d:	e9 01 f5 ff ff       	jmpq   403713 <_nl_load_domain+0x443>
  404212:	be c5 7e 49 00       	mov    $0x497ec5,%esi
  404217:	e9 f7 f4 ff ff       	jmpq   403713 <_nl_load_domain+0x443>
  40421c:	be 42 0e 4b 00       	mov    $0x4b0e42,%esi
  404221:	e9 ed f4 ff ff       	jmpq   403713 <_nl_load_domain+0x443>
  404226:	3d 95 04 12 de       	cmp    $0xde120495,%eax
  40422b:	0f 84 3b ff ff ff    	je     40416c <_nl_load_domain+0xe9c>
  404231:	4c 89 ff             	mov    %r15,%rdi
  404234:	e8 a7 07 01 00       	callq  4149e0 <__cfree>
  404239:	e9 3c f3 ff ff       	jmpq   40357a <_nl_load_domain+0x2aa>
  40423e:	48 8b 85 d8 fe ff ff 	mov    -0x128(%rbp),%rax
  404245:	48 8b 8d d0 fe ff ff 	mov    -0x130(%rbp),%rcx
  40424c:	8b 0c 88             	mov    (%rax,%rcx,4),%ecx
  40424f:	e9 4c fc ff ff       	jmpq   403ea0 <_nl_load_domain+0xbd0>
  404254:	48 8b 85 d8 fe ff ff 	mov    -0x128(%rbp),%rax
  40425b:	48 8b 8d d0 fe ff ff 	mov    -0x130(%rbp),%rcx
  404262:	8b 04 88             	mov    (%rax,%rcx,4),%eax
  404265:	e9 0c f9 ff ff       	jmpq   403b76 <_nl_load_domain+0x8a6>
  40426a:	be ba 78 49 00       	mov    $0x4978ba,%esi
  40426f:	e9 9f f4 ff ff       	jmpq   403713 <_nl_load_domain+0x443>
  404274:	be 54 af 4a 00       	mov    $0x4aaf54,%esi
  404279:	e9 95 f4 ff ff       	jmpq   403713 <_nl_load_domain+0x443>
  40427e:	be 16 78 49 00       	mov    $0x497816,%esi
  404283:	e9 8b f4 ff ff       	jmpq   403713 <_nl_load_domain+0x443>
  404288:	be c5 7e 49 00       	mov    $0x497ec5,%esi
  40428d:	e9 81 f4 ff ff       	jmpq   403713 <_nl_load_domain+0x443>
  404292:	be 42 0e 4b 00       	mov    $0x4b0e42,%esi
  404297:	e9 77 f4 ff ff       	jmpq   403713 <_nl_load_domain+0x443>
  40429c:	48 8b 85 d8 fe ff ff 	mov    -0x128(%rbp),%rax
  4042a3:	8b 04 98             	mov    (%rax,%rbx,4),%eax
  4042a6:	e9 2d f8 ff ff       	jmpq   403ad8 <_nl_load_domain+0x808>
  4042ab:	48 8b 85 d8 fe ff ff 	mov    -0x128(%rbp),%rax
  4042b2:	8b 04 98             	mov    (%rax,%rbx,4),%eax
  4042b5:	e9 a0 fb ff ff       	jmpq   403e5a <_nl_load_domain+0xb8a>
  4042ba:	be 02 37 49 00       	mov    $0x493702,%esi
  4042bf:	e9 4f f4 ff ff       	jmpq   403713 <_nl_load_domain+0x443>
  4042c4:	be 08 37 49 00       	mov    $0x493708,%esi
  4042c9:	e9 45 f4 ff ff       	jmpq   403713 <_nl_load_domain+0x443>
  4042ce:	be 13 37 49 00       	mov    $0x493713,%esi
  4042d3:	e9 3b f4 ff ff       	jmpq   403713 <_nl_load_domain+0x443>
  4042d8:	be 10 37 49 00       	mov    $0x493710,%esi
  4042dd:	e9 31 f4 ff ff       	jmpq   403713 <_nl_load_domain+0x443>
  4042e2:	be 05 37 49 00       	mov    $0x493705,%esi
  4042e7:	e9 27 f4 ff ff       	jmpq   403713 <_nl_load_domain+0x443>
  4042ec:	40 80 fe 4c          	cmp    $0x4c,%sil
  4042f0:	0f 85 ba 00 00 00    	jne    4043b0 <_nl_load_domain+0x10e0>
  4042f6:	31 f6                	xor    %esi,%esi
  4042f8:	80 78 05 45          	cmpb   $0x45,0x5(%rax)
  4042fc:	0f 85 11 f4 ff ff    	jne    403713 <_nl_load_domain+0x443>
  404302:	80 78 06 41          	cmpb   $0x41,0x6(%rax)
  404306:	0f 85 07 f4 ff ff    	jne    403713 <_nl_load_domain+0x443>
  40430c:	80 78 07 53          	cmpb   $0x53,0x7(%rax)
  404310:	0f 85 fd f3 ff ff    	jne    403713 <_nl_load_domain+0x443>
  404316:	80 78 08 54          	cmpb   $0x54,0x8(%rax)
  40431a:	0f 85 f3 f3 ff ff    	jne    403713 <_nl_load_domain+0x443>
  404320:	0f b6 70 09          	movzbl 0x9(%rax),%esi
  404324:	40 80 fe 38          	cmp    $0x38,%sil
  404328:	41 89 f3             	mov    %esi,%r11d
  40432b:	0f 84 56 03 00 00    	je     404687 <_nl_load_domain+0x13b7>
  404331:	31 f6                	xor    %esi,%esi
  404333:	41 80 fb 31          	cmp    $0x31,%r11b
  404337:	0f 84 f2 02 00 00    	je     40462f <_nl_load_domain+0x135f>
  40433d:	41 80 fb 33          	cmp    $0x33,%r11b
  404341:	0f 84 8c 02 00 00    	je     4045d3 <_nl_load_domain+0x1303>
  404347:	41 80 fb 36          	cmp    $0x36,%r11b
  40434b:	0f 85 c2 f3 ff ff    	jne    403713 <_nl_load_domain+0x443>
  404351:	80 78 0a 34          	cmpb   $0x34,0xa(%rax)
  404355:	0f 85 b8 f3 ff ff    	jne    403713 <_nl_load_domain+0x443>
  40435b:	80 78 0b 00          	cmpb   $0x0,0xb(%rax)
  40435f:	0f 85 ae f3 ff ff    	jne    403713 <_nl_load_domain+0x443>
  404365:	45 84 c0             	test   %r8b,%r8b
  404368:	0f 85 5b 02 00 00    	jne    4045c9 <_nl_load_domain+0x12f9>
  40436e:	80 bd 04 ff ff ff 00 	cmpb   $0x0,-0xfc(%rbp)
  404375:	0f 85 44 02 00 00    	jne    4045bf <_nl_load_domain+0x12ef>
  40437b:	40 80 ff 6f          	cmp    $0x6f,%dil
  40437f:	0f 84 30 02 00 00    	je     4045b5 <_nl_load_domain+0x12e5>
  404385:	40 80 ff 75          	cmp    $0x75,%dil
  404389:	0f 84 1c 02 00 00    	je     4045ab <_nl_load_domain+0x12db>
  40438f:	40 80 ff 78          	cmp    $0x78,%dil
  404393:	0f 84 08 02 00 00    	je     4045a1 <_nl_load_domain+0x12d1>
  404399:	40 80 ff 58          	cmp    $0x58,%dil
  40439d:	0f 85 0a fe ff ff    	jne    4041ad <_nl_load_domain+0xedd>
  4043a3:	be 0b 37 49 00       	mov    $0x49370b,%esi
  4043a8:	e9 66 f3 ff ff       	jmpq   403713 <_nl_load_domain+0x443>
  4043ad:	0f 1f 00             	nopl   (%rax)
  4043b0:	40 80 fe 46          	cmp    $0x46,%sil
  4043b4:	0f 85 ad 00 00 00    	jne    404467 <_nl_load_domain+0x1197>
  4043ba:	31 f6                	xor    %esi,%esi
  4043bc:	80 78 05 41          	cmpb   $0x41,0x5(%rax)
  4043c0:	0f 85 4d f3 ff ff    	jne    403713 <_nl_load_domain+0x443>
  4043c6:	80 78 06 53          	cmpb   $0x53,0x6(%rax)
  4043ca:	0f 85 43 f3 ff ff    	jne    403713 <_nl_load_domain+0x443>
  4043d0:	80 78 07 54          	cmpb   $0x54,0x7(%rax)
  4043d4:	0f 85 39 f3 ff ff    	jne    403713 <_nl_load_domain+0x443>
  4043da:	0f b6 70 08          	movzbl 0x8(%rax),%esi
  4043de:	40 80 fe 38          	cmp    $0x38,%sil
  4043e2:	41 89 f3             	mov    %esi,%r11d
  4043e5:	0f 84 59 04 00 00    	je     404844 <_nl_load_domain+0x1574>
  4043eb:	31 f6                	xor    %esi,%esi
  4043ed:	41 80 fb 31          	cmp    $0x31,%r11b
  4043f1:	0f 84 f5 03 00 00    	je     4047ec <_nl_load_domain+0x151c>
  4043f7:	41 80 fb 33          	cmp    $0x33,%r11b
  4043fb:	0f 84 8f 03 00 00    	je     404790 <_nl_load_domain+0x14c0>
  404401:	41 80 fb 36          	cmp    $0x36,%r11b
  404405:	0f 85 08 f3 ff ff    	jne    403713 <_nl_load_domain+0x443>
  40440b:	80 78 09 34          	cmpb   $0x34,0x9(%rax)
  40440f:	0f 85 fe f2 ff ff    	jne    403713 <_nl_load_domain+0x443>
  404415:	80 78 0a 00          	cmpb   $0x0,0xa(%rax)
  404419:	0f 85 f4 f2 ff ff    	jne    403713 <_nl_load_domain+0x443>
  40441f:	45 84 c0             	test   %r8b,%r8b
  404422:	0f 85 5e 03 00 00    	jne    404786 <_nl_load_domain+0x14b6>
  404428:	80 bd 04 ff ff ff 00 	cmpb   $0x0,-0xfc(%rbp)
  40442f:	0f 85 47 03 00 00    	jne    40477c <_nl_load_domain+0x14ac>
  404435:	40 80 ff 6f          	cmp    $0x6f,%dil
  404439:	0f 84 33 03 00 00    	je     404772 <_nl_load_domain+0x14a2>
  40443f:	40 80 ff 75          	cmp    $0x75,%dil
  404443:	0f 84 1f 03 00 00    	je     404768 <_nl_load_domain+0x1498>
  404449:	40 80 ff 78          	cmp    $0x78,%dil
  40444d:	0f 84 0b 03 00 00    	je     40475e <_nl_load_domain+0x148e>
  404453:	40 80 ff 58          	cmp    $0x58,%dil
  404457:	0f 85 50 fd ff ff    	jne    4041ad <_nl_load_domain+0xedd>
  40445d:	be 0b 37 49 00       	mov    $0x49370b,%esi
  404462:	e9 ac f2 ff ff       	jmpq   403713 <_nl_load_domain+0x443>
  404467:	40 80 fe 4d          	cmp    $0x4d,%sil
  40446b:	75 6b                	jne    4044d8 <_nl_load_domain+0x1208>
  40446d:	31 f6                	xor    %esi,%esi
  40446f:	80 78 05 41          	cmpb   $0x41,0x5(%rax)
  404473:	0f 85 9a f2 ff ff    	jne    403713 <_nl_load_domain+0x443>
  404479:	80 78 06 58          	cmpb   $0x58,0x6(%rax)
  40447d:	0f 85 90 f2 ff ff    	jne    403713 <_nl_load_domain+0x443>
  404483:	80 78 07 00          	cmpb   $0x0,0x7(%rax)
  404487:	75 48                	jne    4044d1 <_nl_load_domain+0x1201>
  404489:	45 84 c0             	test   %r8b,%r8b
  40448c:	0f 85 dd 00 00 00    	jne    40456f <_nl_load_domain+0x129f>
  404492:	80 bd 04 ff ff ff 00 	cmpb   $0x0,-0xfc(%rbp)
  404499:	0f 85 c6 00 00 00    	jne    404565 <_nl_load_domain+0x1295>
  40449f:	40 80 ff 6f          	cmp    $0x6f,%dil
  4044a3:	0f 84 b2 00 00 00    	je     40455b <_nl_load_domain+0x128b>
  4044a9:	40 80 ff 75          	cmp    $0x75,%dil
  4044ad:	0f 84 9e 00 00 00    	je     404551 <_nl_load_domain+0x1281>
  4044b3:	40 80 ff 78          	cmp    $0x78,%dil
  4044b7:	0f 84 80 00 00 00    	je     40453d <_nl_load_domain+0x126d>
  4044bd:	40 80 ff 58          	cmp    $0x58,%dil
  4044c1:	0f 85 e6 fc ff ff    	jne    4041ad <_nl_load_domain+0xedd>
  4044c7:	be 0b 37 49 00       	mov    $0x49370b,%esi
  4044cc:	e9 42 f2 ff ff       	jmpq   403713 <_nl_load_domain+0x443>
  4044d1:	31 f6                	xor    %esi,%esi
  4044d3:	e9 3b f2 ff ff       	jmpq   403713 <_nl_load_domain+0x443>
  4044d8:	40 80 fe 50          	cmp    $0x50,%sil
  4044dc:	0f 85 5a f3 ff ff    	jne    40383c <_nl_load_domain+0x56c>
  4044e2:	31 f6                	xor    %esi,%esi
  4044e4:	80 78 05 54          	cmpb   $0x54,0x5(%rax)
  4044e8:	0f 85 25 f2 ff ff    	jne    403713 <_nl_load_domain+0x443>
  4044ee:	80 78 06 52          	cmpb   $0x52,0x6(%rax)
  4044f2:	0f 85 1b f2 ff ff    	jne    403713 <_nl_load_domain+0x443>
  4044f8:	80 78 07 00          	cmpb   $0x0,0x7(%rax)
  4044fc:	75 38                	jne    404536 <_nl_load_domain+0x1266>
  4044fe:	45 84 c0             	test   %r8b,%r8b
  404501:	0f 85 90 00 00 00    	jne    404597 <_nl_load_domain+0x12c7>
  404507:	80 bd 04 ff ff ff 00 	cmpb   $0x0,-0xfc(%rbp)
  40450e:	75 7d                	jne    40458d <_nl_load_domain+0x12bd>
  404510:	40 80 ff 6f          	cmp    $0x6f,%dil
  404514:	74 6d                	je     404583 <_nl_load_domain+0x12b3>
  404516:	40 80 ff 75          	cmp    $0x75,%dil
  40451a:	74 5d                	je     404579 <_nl_load_domain+0x12a9>
  40451c:	40 80 ff 78          	cmp    $0x78,%dil
  404520:	74 25                	je     404547 <_nl_load_domain+0x1277>
  404522:	40 80 ff 58          	cmp    $0x58,%dil
  404526:	0f 85 81 fc ff ff    	jne    4041ad <_nl_load_domain+0xedd>
  40452c:	be 0b 37 49 00       	mov    $0x49370b,%esi
  404531:	e9 dd f1 ff ff       	jmpq   403713 <_nl_load_domain+0x443>
  404536:	31 f6                	xor    %esi,%esi
  404538:	e9 d6 f1 ff ff       	jmpq   403713 <_nl_load_domain+0x443>
  40453d:	be 02 37 49 00       	mov    $0x493702,%esi
  404542:	e9 cc f1 ff ff       	jmpq   403713 <_nl_load_domain+0x443>
  404547:	be 02 37 49 00       	mov    $0x493702,%esi
  40454c:	e9 c2 f1 ff ff       	jmpq   403713 <_nl_load_domain+0x443>
  404551:	be 08 37 49 00       	mov    $0x493708,%esi
  404556:	e9 b8 f1 ff ff       	jmpq   403713 <_nl_load_domain+0x443>
  40455b:	be 13 37 49 00       	mov    $0x493713,%esi
  404560:	e9 ae f1 ff ff       	jmpq   403713 <_nl_load_domain+0x443>
  404565:	be 10 37 49 00       	mov    $0x493710,%esi
  40456a:	e9 a4 f1 ff ff       	jmpq   403713 <_nl_load_domain+0x443>
  40456f:	be 05 37 49 00       	mov    $0x493705,%esi
  404574:	e9 9a f1 ff ff       	jmpq   403713 <_nl_load_domain+0x443>
  404579:	be 08 37 49 00       	mov    $0x493708,%esi
  40457e:	e9 90 f1 ff ff       	jmpq   403713 <_nl_load_domain+0x443>
  404583:	be 13 37 49 00       	mov    $0x493713,%esi
  404588:	e9 86 f1 ff ff       	jmpq   403713 <_nl_load_domain+0x443>
  40458d:	be 10 37 49 00       	mov    $0x493710,%esi
  404592:	e9 7c f1 ff ff       	jmpq   403713 <_nl_load_domain+0x443>
  404597:	be 05 37 49 00       	mov    $0x493705,%esi
  40459c:	e9 72 f1 ff ff       	jmpq   403713 <_nl_load_domain+0x443>
  4045a1:	be 02 37 49 00       	mov    $0x493702,%esi
  4045a6:	e9 68 f1 ff ff       	jmpq   403713 <_nl_load_domain+0x443>
  4045ab:	be 08 37 49 00       	mov    $0x493708,%esi
  4045b0:	e9 5e f1 ff ff       	jmpq   403713 <_nl_load_domain+0x443>
  4045b5:	be 13 37 49 00       	mov    $0x493713,%esi
  4045ba:	e9 54 f1 ff ff       	jmpq   403713 <_nl_load_domain+0x443>
  4045bf:	be 10 37 49 00       	mov    $0x493710,%esi
  4045c4:	e9 4a f1 ff ff       	jmpq   403713 <_nl_load_domain+0x443>
  4045c9:	be 05 37 49 00       	mov    $0x493705,%esi
  4045ce:	e9 40 f1 ff ff       	jmpq   403713 <_nl_load_domain+0x443>
  4045d3:	80 78 0a 32          	cmpb   $0x32,0xa(%rax)
  4045d7:	0f 85 36 f1 ff ff    	jne    403713 <_nl_load_domain+0x443>
  4045dd:	80 78 0b 00          	cmpb   $0x0,0xb(%rax)
  4045e1:	0f 85 2c f1 ff ff    	jne    403713 <_nl_load_domain+0x443>
  4045e7:	45 84 c0             	test   %r8b,%r8b
  4045ea:	0f 85 64 01 00 00    	jne    404754 <_nl_load_domain+0x1484>
  4045f0:	80 bd 04 ff ff ff 00 	cmpb   $0x0,-0xfc(%rbp)
  4045f7:	0f 85 4d 01 00 00    	jne    40474a <_nl_load_domain+0x147a>
  4045fd:	40 80 ff 6f          	cmp    $0x6f,%dil
  404601:	0f 84 39 01 00 00    	je     404740 <_nl_load_domain+0x1470>
  404607:	40 80 ff 75          	cmp    $0x75,%dil
  40460b:	0f 84 25 01 00 00    	je     404736 <_nl_load_domain+0x1466>
  404611:	40 80 ff 78          	cmp    $0x78,%dil
  404615:	0f 84 a6 00 00 00    	je     4046c1 <_nl_load_domain+0x13f1>
  40461b:	40 80 ff 58          	cmp    $0x58,%dil
  40461f:	0f 85 88 fb ff ff    	jne    4041ad <_nl_load_domain+0xedd>
  404625:	be f1 46 49 00       	mov    $0x4946f1,%esi
  40462a:	e9 e4 f0 ff ff       	jmpq   403713 <_nl_load_domain+0x443>
  40462f:	80 78 0a 36          	cmpb   $0x36,0xa(%rax)
  404633:	0f 85 da f0 ff ff    	jne    403713 <_nl_load_domain+0x443>
  404639:	80 78 0b 00          	cmpb   $0x0,0xb(%rax)
  40463d:	0f 85 d0 f0 ff ff    	jne    403713 <_nl_load_domain+0x443>
  404643:	45 84 c0             	test   %r8b,%r8b
  404646:	0f 85 e0 00 00 00    	jne    40472c <_nl_load_domain+0x145c>
  40464c:	80 bd 04 ff ff ff 00 	cmpb   $0x0,-0xfc(%rbp)
  404653:	0f 85 c9 00 00 00    	jne    404722 <_nl_load_domain+0x1452>
  404659:	40 80 ff 6f          	cmp    $0x6f,%dil
  40465d:	0f 84 b5 00 00 00    	je     404718 <_nl_load_domain+0x1448>
  404663:	40 80 ff 75          	cmp    $0x75,%dil
  404667:	0f 84 a1 00 00 00    	je     40470e <_nl_load_domain+0x143e>
  40466d:	40 80 ff 78          	cmp    $0x78,%dil
  404671:	74 58                	je     4046cb <_nl_load_domain+0x13fb>
  404673:	40 80 ff 58          	cmp    $0x58,%dil
  404677:	0f 85 30 fb ff ff    	jne    4041ad <_nl_load_domain+0xedd>
  40467d:	be f1 46 49 00       	mov    $0x4946f1,%esi
  404682:	e9 8c f0 ff ff       	jmpq   403713 <_nl_load_domain+0x443>
  404687:	80 78 0a 00          	cmpb   $0x0,0xa(%rax)
  40468b:	75 7a                	jne    404707 <_nl_load_domain+0x1437>
  40468d:	45 84 c0             	test   %r8b,%r8b
  404690:	75 6b                	jne    4046fd <_nl_load_domain+0x142d>
  404692:	80 bd 04 ff ff ff 00 	cmpb   $0x0,-0xfc(%rbp)
  404699:	75 58                	jne    4046f3 <_nl_load_domain+0x1423>
  40469b:	40 80 ff 6f          	cmp    $0x6f,%dil
  40469f:	74 48                	je     4046e9 <_nl_load_domain+0x1419>
  4046a1:	40 80 ff 75          	cmp    $0x75,%dil
  4046a5:	74 38                	je     4046df <_nl_load_domain+0x140f>
  4046a7:	40 80 ff 78          	cmp    $0x78,%dil
  4046ab:	74 28                	je     4046d5 <_nl_load_domain+0x1405>
  4046ad:	40 80 ff 58          	cmp    $0x58,%dil
  4046b1:	0f 85 f6 fa ff ff    	jne    4041ad <_nl_load_domain+0xedd>
  4046b7:	be f1 46 49 00       	mov    $0x4946f1,%esi
  4046bc:	e9 52 f0 ff ff       	jmpq   403713 <_nl_load_domain+0x443>
  4046c1:	be ba 78 49 00       	mov    $0x4978ba,%esi
  4046c6:	e9 48 f0 ff ff       	jmpq   403713 <_nl_load_domain+0x443>
  4046cb:	be ba 78 49 00       	mov    $0x4978ba,%esi
  4046d0:	e9 3e f0 ff ff       	jmpq   403713 <_nl_load_domain+0x443>
  4046d5:	be ba 78 49 00       	mov    $0x4978ba,%esi
  4046da:	e9 34 f0 ff ff       	jmpq   403713 <_nl_load_domain+0x443>
  4046df:	be 54 af 4a 00       	mov    $0x4aaf54,%esi
  4046e4:	e9 2a f0 ff ff       	jmpq   403713 <_nl_load_domain+0x443>
  4046e9:	be 16 78 49 00       	mov    $0x497816,%esi
  4046ee:	e9 20 f0 ff ff       	jmpq   403713 <_nl_load_domain+0x443>
  4046f3:	be c5 7e 49 00       	mov    $0x497ec5,%esi
  4046f8:	e9 16 f0 ff ff       	jmpq   403713 <_nl_load_domain+0x443>
  4046fd:	be 42 0e 4b 00       	mov    $0x4b0e42,%esi
  404702:	e9 0c f0 ff ff       	jmpq   403713 <_nl_load_domain+0x443>
  404707:	31 f6                	xor    %esi,%esi
  404709:	e9 05 f0 ff ff       	jmpq   403713 <_nl_load_domain+0x443>
  40470e:	be 54 af 4a 00       	mov    $0x4aaf54,%esi
  404713:	e9 fb ef ff ff       	jmpq   403713 <_nl_load_domain+0x443>
  404718:	be 16 78 49 00       	mov    $0x497816,%esi
  40471d:	e9 f1 ef ff ff       	jmpq   403713 <_nl_load_domain+0x443>
  404722:	be c5 7e 49 00       	mov    $0x497ec5,%esi
  404727:	e9 e7 ef ff ff       	jmpq   403713 <_nl_load_domain+0x443>
  40472c:	be 42 0e 4b 00       	mov    $0x4b0e42,%esi
  404731:	e9 dd ef ff ff       	jmpq   403713 <_nl_load_domain+0x443>
  404736:	be 54 af 4a 00       	mov    $0x4aaf54,%esi
  40473b:	e9 d3 ef ff ff       	jmpq   403713 <_nl_load_domain+0x443>
  404740:	be 16 78 49 00       	mov    $0x497816,%esi
  404745:	e9 c9 ef ff ff       	jmpq   403713 <_nl_load_domain+0x443>
  40474a:	be c5 7e 49 00       	mov    $0x497ec5,%esi
  40474f:	e9 bf ef ff ff       	jmpq   403713 <_nl_load_domain+0x443>
  404754:	be 42 0e 4b 00       	mov    $0x4b0e42,%esi
  404759:	e9 b5 ef ff ff       	jmpq   403713 <_nl_load_domain+0x443>
  40475e:	be 02 37 49 00       	mov    $0x493702,%esi
  404763:	e9 ab ef ff ff       	jmpq   403713 <_nl_load_domain+0x443>
  404768:	be 08 37 49 00       	mov    $0x493708,%esi
  40476d:	e9 a1 ef ff ff       	jmpq   403713 <_nl_load_domain+0x443>
  404772:	be 13 37 49 00       	mov    $0x493713,%esi
  404777:	e9 97 ef ff ff       	jmpq   403713 <_nl_load_domain+0x443>
  40477c:	be 10 37 49 00       	mov    $0x493710,%esi
  404781:	e9 8d ef ff ff       	jmpq   403713 <_nl_load_domain+0x443>
  404786:	be 05 37 49 00       	mov    $0x493705,%esi
  40478b:	e9 83 ef ff ff       	jmpq   403713 <_nl_load_domain+0x443>
  404790:	80 78 09 32          	cmpb   $0x32,0x9(%rax)
  404794:	0f 85 79 ef ff ff    	jne    403713 <_nl_load_domain+0x443>
  40479a:	80 78 0a 00          	cmpb   $0x0,0xa(%rax)
  40479e:	0f 85 6f ef ff ff    	jne    403713 <_nl_load_domain+0x443>
  4047a4:	45 84 c0             	test   %r8b,%r8b
  4047a7:	0f 85 64 01 00 00    	jne    404911 <_nl_load_domain+0x1641>
  4047ad:	80 bd 04 ff ff ff 00 	cmpb   $0x0,-0xfc(%rbp)
  4047b4:	0f 85 4d 01 00 00    	jne    404907 <_nl_load_domain+0x1637>
  4047ba:	40 80 ff 6f          	cmp    $0x6f,%dil
  4047be:	0f 84 39 01 00 00    	je     4048fd <_nl_load_domain+0x162d>
  4047c4:	40 80 ff 75          	cmp    $0x75,%dil
  4047c8:	0f 84 25 01 00 00    	je     4048f3 <_nl_load_domain+0x1623>
  4047ce:	40 80 ff 78          	cmp    $0x78,%dil
  4047d2:	0f 84 a6 00 00 00    	je     40487e <_nl_load_domain+0x15ae>
  4047d8:	40 80 ff 58          	cmp    $0x58,%dil
  4047dc:	0f 85 cb f9 ff ff    	jne    4041ad <_nl_load_domain+0xedd>
  4047e2:	be 0b 37 49 00       	mov    $0x49370b,%esi
  4047e7:	e9 27 ef ff ff       	jmpq   403713 <_nl_load_domain+0x443>
  4047ec:	80 78 09 36          	cmpb   $0x36,0x9(%rax)
  4047f0:	0f 85 1d ef ff ff    	jne    403713 <_nl_load_domain+0x443>
  4047f6:	80 78 0a 00          	cmpb   $0x0,0xa(%rax)
  4047fa:	0f 85 13 ef ff ff    	jne    403713 <_nl_load_domain+0x443>
  404800:	45 84 c0             	test   %r8b,%r8b
  404803:	0f 85 e0 00 00 00    	jne    4048e9 <_nl_load_domain+0x1619>
  404809:	80 bd 04 ff ff ff 00 	cmpb   $0x0,-0xfc(%rbp)
  404810:	0f 85 c9 00 00 00    	jne    4048df <_nl_load_domain+0x160f>
  404816:	40 80 ff 6f          	cmp    $0x6f,%dil
  40481a:	0f 84 b5 00 00 00    	je     4048d5 <_nl_load_domain+0x1605>
  404820:	40 80 ff 75          	cmp    $0x75,%dil
  404824:	0f 84 a1 00 00 00    	je     4048cb <_nl_load_domain+0x15fb>
  40482a:	40 80 ff 78          	cmp    $0x78,%dil
  40482e:	74 58                	je     404888 <_nl_load_domain+0x15b8>
  404830:	40 80 ff 58          	cmp    $0x58,%dil
  404834:	0f 85 73 f9 ff ff    	jne    4041ad <_nl_load_domain+0xedd>
  40483a:	be 0b 37 49 00       	mov    $0x49370b,%esi
  40483f:	e9 cf ee ff ff       	jmpq   403713 <_nl_load_domain+0x443>
  404844:	80 78 09 00          	cmpb   $0x0,0x9(%rax)
  404848:	75 7a                	jne    4048c4 <_nl_load_domain+0x15f4>
  40484a:	45 84 c0             	test   %r8b,%r8b
  40484d:	75 6b                	jne    4048ba <_nl_load_domain+0x15ea>
  40484f:	80 bd 04 ff ff ff 00 	cmpb   $0x0,-0xfc(%rbp)
  404856:	75 58                	jne    4048b0 <_nl_load_domain+0x15e0>
  404858:	40 80 ff 6f          	cmp    $0x6f,%dil
  40485c:	74 48                	je     4048a6 <_nl_load_domain+0x15d6>
  40485e:	40 80 ff 75          	cmp    $0x75,%dil
  404862:	74 38                	je     40489c <_nl_load_domain+0x15cc>
  404864:	40 80 ff 78          	cmp    $0x78,%dil
  404868:	74 28                	je     404892 <_nl_load_domain+0x15c2>
  40486a:	40 80 ff 58          	cmp    $0x58,%dil
  40486e:	0f 85 39 f9 ff ff    	jne    4041ad <_nl_load_domain+0xedd>
  404874:	be f1 46 49 00       	mov    $0x4946f1,%esi
  404879:	e9 95 ee ff ff       	jmpq   403713 <_nl_load_domain+0x443>
  40487e:	be 02 37 49 00       	mov    $0x493702,%esi
  404883:	e9 8b ee ff ff       	jmpq   403713 <_nl_load_domain+0x443>
  404888:	be 02 37 49 00       	mov    $0x493702,%esi
  40488d:	e9 81 ee ff ff       	jmpq   403713 <_nl_load_domain+0x443>
  404892:	be ba 78 49 00       	mov    $0x4978ba,%esi
  404897:	e9 77 ee ff ff       	jmpq   403713 <_nl_load_domain+0x443>
  40489c:	be 54 af 4a 00       	mov    $0x4aaf54,%esi
  4048a1:	e9 6d ee ff ff       	jmpq   403713 <_nl_load_domain+0x443>
  4048a6:	be 16 78 49 00       	mov    $0x497816,%esi
  4048ab:	e9 63 ee ff ff       	jmpq   403713 <_nl_load_domain+0x443>
  4048b0:	be c5 7e 49 00       	mov    $0x497ec5,%esi
  4048b5:	e9 59 ee ff ff       	jmpq   403713 <_nl_load_domain+0x443>
  4048ba:	be 42 0e 4b 00       	mov    $0x4b0e42,%esi
  4048bf:	e9 4f ee ff ff       	jmpq   403713 <_nl_load_domain+0x443>
  4048c4:	31 f6                	xor    %esi,%esi
  4048c6:	e9 48 ee ff ff       	jmpq   403713 <_nl_load_domain+0x443>
  4048cb:	be 08 37 49 00       	mov    $0x493708,%esi
  4048d0:	e9 3e ee ff ff       	jmpq   403713 <_nl_load_domain+0x443>
  4048d5:	be 13 37 49 00       	mov    $0x493713,%esi
  4048da:	e9 34 ee ff ff       	jmpq   403713 <_nl_load_domain+0x443>
  4048df:	be 10 37 49 00       	mov    $0x493710,%esi
  4048e4:	e9 2a ee ff ff       	jmpq   403713 <_nl_load_domain+0x443>
  4048e9:	be 05 37 49 00       	mov    $0x493705,%esi
  4048ee:	e9 20 ee ff ff       	jmpq   403713 <_nl_load_domain+0x443>
  4048f3:	be 08 37 49 00       	mov    $0x493708,%esi
  4048f8:	e9 16 ee ff ff       	jmpq   403713 <_nl_load_domain+0x443>
  4048fd:	be 13 37 49 00       	mov    $0x493713,%esi
  404902:	e9 0c ee ff ff       	jmpq   403713 <_nl_load_domain+0x443>
  404907:	be 10 37 49 00       	mov    $0x493710,%esi
  40490c:	e9 02 ee ff ff       	jmpq   403713 <_nl_load_domain+0x443>
  404911:	be 05 37 49 00       	mov    $0x493705,%esi
  404916:	e9 f8 ed ff ff       	jmpq   403713 <_nl_load_domain+0x443>

000000000040491b <_L_lock_45>:
  40491b:	48 8d 3d ce c8 2b 00 	lea    0x2bc8ce(%rip),%rdi        # 6c11f0 <lock.9688>
  404922:	48 81 ec 80 00 00 00 	sub    $0x80,%rsp
  404929:	e8 42 24 03 00       	callq  436d70 <__lll_lock_wait_private>
  40492e:	48 81 c4 80 00 00 00 	add    $0x80,%rsp
  404935:	e9 f3 e9 ff ff       	jmpq   40332d <_nl_load_domain+0x5d>

000000000040493a <_L_unlock_84>:
  40493a:	48 8d 3d af c8 2b 00 	lea    0x2bc8af(%rip),%rdi        # 6c11f0 <lock.9688>
  404941:	48 81 ec 80 00 00 00 	sub    $0x80,%rsp
  404948:	e8 53 24 03 00       	callq  436da0 <__lll_unlock_wake_private>
  40494d:	48 81 c4 80 00 00 00 	add    $0x80,%rsp
  404954:	e9 2a ea ff ff       	jmpq   403383 <_nl_load_domain+0xb3>
  404959:	0f 1f 80 00 00 00 00 	nopl   0x0(%rax)

0000000000404960 <alias_compare>:
  404960:	48 8b 36             	mov    (%rsi),%rsi
  404963:	48 8b 3f             	mov    (%rdi),%rdi
  404966:	ba e0 56 4a 00       	mov    $0x4a56e0,%edx
  40496b:	e9 b0 b9 ff ff       	jmpq   400320 <__rela_iplt_end+0x70>

0000000000404970 <read_alias_file>:
  404970:	55                   	push   %rbp
  404971:	48 63 d6             	movslq %esi,%rdx
  404974:	48 89 fe             	mov    %rdi,%rsi
  404977:	48 8d 42 2c          	lea    0x2c(%rdx),%rax
  40497b:	48 89 e5             	mov    %rsp,%rbp
  40497e:	41 57                	push   %r15
  404980:	48 83 e0 f0          	and    $0xfffffffffffffff0,%rax
  404984:	41 56                	push   %r14
  404986:	41 55                	push   %r13
  404988:	41 54                	push   %r12
  40498a:	53                   	push   %rbx
--
  4093fb:	e8 60 eb 04 00       	callq  457f60 <_IO_switch_to_main_wget_area>
  409400:	48 8b 83 a0 00 00 00 	mov    0xa0(%rbx),%rax
  409407:	48 83 78 30 00       	cmpq   $0x0,0x30(%rax)
  40940c:	0f 84 99 02 00 00    	je     4096ab <_IO_wfile_seekoff+0x34b>
  409412:	41 83 fc 01          	cmp    $0x1,%r12d
  409416:	0f 84 b4 00 00 00    	je     4094d0 <_IO_wfile_seekoff+0x170>
  40941c:	41 83 fc 02          	cmp    $0x2,%r12d
  409420:	0f 85 15 01 00 00    	jne    40953b <_IO_wfile_seekoff+0x1db>
  409426:	48 8b 83 d8 00 00 00 	mov    0xd8(%rbx),%rax
  40942d:	48 8d 74 24 30       	lea    0x30(%rsp),%rsi
  409432:	48 89 df             	mov    %rbx,%rdi
  409435:	ff 90 90 00 00 00    	callq  *0x90(%rax)
  40943b:	85 c0                	test   %eax,%eax
  40943d:	0f 84 cd 02 00 00    	je     409710 <_IO_wfile_seekoff+0x3b0>
  409443:	48 89 df             	mov    %rbx,%rdi
  409446:	49 c7 c5 ff ff ff ff 	mov    $0xffffffffffffffff,%r13
  40944d:	e8 1e 51 00 00       	callq  40e570 <_IO_unsave_markers>
  409452:	48 8b 83 d8 00 00 00 	mov    0xd8(%rbx),%rax
  409459:	44 89 e2             	mov    %r12d,%edx
  40945c:	48 89 ee             	mov    %rbp,%rsi
  40945f:	48 89 df             	mov    %rbx,%rdi
--
  40ae78:	e8 93 20 00 00       	callq  40cf10 <_IO_switch_to_main_get_area>
  40ae7d:	4c 8b 7b 08          	mov    0x8(%rbx),%r15
  40ae81:	48 8b 6b 10          	mov    0x10(%rbx),%rbp
  40ae85:	4c 29 fd             	sub    %r15,%rbp
  40ae88:	49 39 ed             	cmp    %rbp,%r13
  40ae8b:	76 8e                	jbe    40ae1b <_IO_file_xsgetn_mmap+0xeb>
  40ae8d:	e9 db fe ff ff       	jmpq   40ad6d <_IO_file_xsgetn_mmap+0x3d>
  40ae92:	66 0f 1f 44 00 00    	nopw   0x0(%rax,%rax,1)
  40ae98:	48 8b 6c 24 30       	mov    0x30(%rsp),%rbp
  40ae9d:	48 85 ed             	test   %rbp,%rbp
  40aea0:	0f 84 f2 fe ff ff    	je     40ad98 <_IO_file_xsgetn_mmap+0x68>
  40aea6:	e8 55 9a 02 00       	callq  434900 <__getpagesize>
  40aeab:	48 8b 7b 38          	mov    0x38(%rbx),%rdi
  40aeaf:	48 98                	cltq   
  40aeb1:	48 89 c1             	mov    %rax,%rcx
  40aeb4:	48 8d 54 05 ff       	lea    -0x1(%rbp,%rax,1),%rdx
  40aeb9:	48 f7 d9             	neg    %rcx
  40aebc:	48 89 fe             	mov    %rdi,%rsi
  40aebf:	48 21 ca             	and    %rcx,%rdx
  40aec2:	49 89 f8             	mov    %rdi,%r8
  40aec5:	48 f7 d6             	not    %rsi
--
  40b133:	e8 d8 1d 00 00       	callq  40cf10 <_IO_switch_to_main_get_area>
  40b138:	e9 73 ff ff ff       	jmpq   40b0b0 <_IO_file_xsgetn+0xe0>
  40b13d:	0f 1f 00             	nopl   (%rax)
  40b140:	4c 89 f7             	mov    %r14,%rdi
  40b143:	48 89 ea             	mov    %rbp,%rdx
  40b146:	49 29 ec             	sub    %rbp,%r12
  40b149:	e8 02 10 01 00       	callq  41c150 <__mempcpy>
  40b14e:	48 01 6b 08          	add    %rbp,0x8(%rbx)
  40b152:	49 89 c6             	mov    %rax,%r14
  40b155:	e9 c3 fe ff ff       	jmpq   40b01d <_IO_file_xsgetn+0x4d>
  40b15a:	66 0f 1f 44 00 00    	nopw   0x0(%rax,%rax,1)
  40b160:	48 89 df             	mov    %rbx,%rdi
  40b163:	e8 08 1f 00 00       	callq  40d070 <__underflow>
  40b168:	83 f8 ff             	cmp    $0xffffffff,%eax
  40b16b:	0f 85 3f ff ff ff    	jne    40b0b0 <_IO_file_xsgetn+0xe0>
  40b171:	5b                   	pop    %rbx
  40b172:	5d                   	pop    %rbp
  40b173:	4c 89 e8             	mov    %r13,%rax
  40b176:	4c 29 e0             	sub    %r12,%rax
  40b179:	41 5c                	pop    %r12
  40b17b:	41 5d                	pop    %r13
--
000000000040cf10 <_IO_switch_to_main_get_area>:
  40cf10:	48 8b 47 10          	mov    0x10(%rdi),%rax
  40cf14:	48 8b 57 58          	mov    0x58(%rdi),%rdx
  40cf18:	81 27 ff fe ff ff    	andl   $0xfffffeff,(%rdi)
  40cf1e:	48 89 57 10          	mov    %rdx,0x10(%rdi)
  40cf22:	48 89 47 58          	mov    %rax,0x58(%rdi)
  40cf26:	48 8b 57 18          	mov    0x18(%rdi),%rdx
  40cf2a:	48 8b 47 48          	mov    0x48(%rdi),%rax
  40cf2e:	48 89 57 48          	mov    %rdx,0x48(%rdi)
  40cf32:	48 89 47 18          	mov    %rax,0x18(%rdi)
  40cf36:	48 89 47 08          	mov    %rax,0x8(%rdi)
  40cf3a:	c3                   	retq   
  40cf3b:	0f 1f 44 00 00       	nopl   0x0(%rax,%rax,1)

000000000040cf40 <_IO_switch_to_backup_area>:
  40cf40:	48 8b 57 10          	mov    0x10(%rdi),%rdx
  40cf44:	48 8b 47 58          	mov    0x58(%rdi),%rax
  40cf48:	48 8b 4f 48          	mov    0x48(%rdi),%rcx
  40cf4c:	81 0f 00 01 00 00    	orl    $0x100,(%rdi)
  40cf52:	48 89 57 58          	mov    %rdx,0x58(%rdi)
  40cf56:	48 8b 57 18          	mov    0x18(%rdi),%rdx
--
  40f43b:	8b 05 23 04 2b 00    	mov    0x2b0423(%rip),%eax        # 6bf864 <main_arena+0x4>
  40f441:	48 89 ca             	mov    %rcx,%rdx
  40f444:	48 83 e2 f8          	and    $0xfffffffffffffff8,%rdx
  40f448:	d1 e8                	shr    %eax
  40f44a:	83 f0 01             	xor    $0x1,%eax
  40f44d:	83 e0 01             	and    $0x1,%eax
  40f450:	74 24                	je     40f476 <mem2chunk_check+0x56>
  40f452:	4c 8b 0d f7 03 2b 00 	mov    0x2b03f7(%rip),%r9        # 6bf850 <mp_+0x50>
  40f459:	4d 39 c8             	cmp    %r9,%r8
  40f45c:	0f 82 2e 01 00 00    	jb     40f590 <mem2chunk_check+0x170>
  40f462:	4c 03 0d 6f 0c 2b 00 	add    0x2b0c6f(%rip),%r9        # 6c00d8 <main_arena+0x878>
  40f469:	4d 8d 14 10          	lea    (%r8,%rdx,1),%r10
  40f46d:	4d 39 ca             	cmp    %r9,%r10
  40f470:	0f 83 1a 01 00 00    	jae    40f590 <mem2chunk_check+0x170>
  40f476:	48 83 fa 1f          	cmp    $0x1f,%rdx
  40f47a:	0f 86 10 01 00 00    	jbe    40f590 <mem2chunk_check+0x170>
  40f480:	f6 c1 08             	test   $0x8,%cl
  40f483:	0f 85 07 01 00 00    	jne    40f590 <mem2chunk_check+0x170>
  40f489:	f6 44 17 f8 01       	testb  $0x1,-0x8(%rdi,%rdx,1)
  40f48e:	0f 84 fc 00 00 00    	je     40f590 <mem2chunk_check+0x170>
  40f494:	83 e1 01             	and    $0x1,%ecx
  40f497:	0f 84 a3 01 00 00    	je     40f640 <mem2chunk_check+0x220>
  40f49d:	48 83 c2 07          	add    $0x7,%rdx
  40f4a1:	4d 89 c2             	mov    %r8,%r10
  40f4a4:	4d 89 c1             	mov    %r8,%r9
  40f4a7:	49 8d 0c 10          	lea    (%r8,%rdx,1),%rcx
  40f4ab:	49 c1 ea 0b          	shr    $0xb,%r10
  40f4af:	49 c1 e9 03          	shr    $0x3,%r9
  40f4b3:	45 31 d1             	xor    %r10d,%r9d
  40f4b6:	0f b6 39             	movzbl (%rcx),%edi
  40f4b9:	45 0f b6 c9          	movzbl %r9b,%r9d
--
  40fd30:	48 8b 15 a1 03 2b 00 	mov    0x2b03a1(%rip),%rdx        # 6c00d8 <main_arena+0x878>
  40fd37:	49 8b 7c 24 40       	mov    0x40(%r12),%rdi
  40fd3c:	be b8 4a 49 00       	mov    $0x494ab8,%esi
  40fd41:	31 c0                	xor    %eax,%eax
  40fd43:	48 89 d1             	mov    %rdx,%rcx
  40fd46:	e8 95 06 04 00       	callq  4503e0 <__fprintf>
  40fd4b:	48 8b 05 86 03 2b 00 	mov    0x2b0386(%rip),%rax        # 6c00d8 <main_arena+0x878>
  40fd52:	49 01 44 24 08       	add    %rax,0x8(%r12)
  40fd57:	49 01 04 24          	add    %rax,(%r12)
  40fd5b:	e9 64 ff ff ff       	jmpq   40fcc4 <mi_arena.11483+0x2e4>

000000000040fd60 <ptmalloc_unlock_all>:
  40fd60:	8b 05 2a fa 2a 00    	mov    0x2afa2a(%rip),%eax        # 6bf790 <__libc_malloc_initialized>
  40fd66:	85 c0                	test   %eax,%eax
  40fd68:	0f 8e 92 00 00 00    	jle    40fe00 <ptmalloc_unlock_all+0xa0>
  40fd6e:	83 2d 4b 1a 2b 00 01 	subl   $0x1,0x2b1a4b(%rip)        # 6c17c0 <atfork_recursive_cntr>
  40fd75:	0f 85 85 00 00 00    	jne    40fe00 <ptmalloc_unlock_all+0xa0>
  40fd7b:	48 8b 15 8e 1a 2b 00 	mov    0x2b1a8e(%rip),%rdx        # 6c1810 <save_arena>
  40fd82:	48 c7 c0 d0 ff ff ff 	mov    $0xffffffffffffffd0,%rax
  40fd89:	64 48 89 10          	mov    %rdx,%fs:(%rax)
  40fd8d:	48 8b 05 9c 1a 2b 00 	mov    0x2b1a9c(%rip),%rax        # 6c1830 <save_malloc_hook>
  40fd94:	ba 60 f8 6b 00       	mov    $0x6bf860,%edx
  40fd99:	48 89 05 40 fa 2a 00 	mov    %rax,0x2afa40(%rip)        # 6bf7e0 <__malloc_hook>
  40fda0:	48 8b 05 79 1a 2b 00 	mov    0x2b1a79(%rip),%rax        # 6c1820 <save_free_hook>
  40fda7:	48 89 05 a2 19 2b 00 	mov    %rax,0x2b19a2(%rip)        # 6c1750 <__free_hook>
  40fdae:	66 90                	xchg   %ax,%ax
  40fdb0:	83 3d 25 31 2b 00 00 	cmpl   $0x0,0x2b3125(%rip)        # 6c2edc <__libc_multiple_threads>
--
  410306:	48 8b 05 bb fd 2a 00 	mov    0x2afdbb(%rip),%rax        # 6c00c8 <main_arena+0x868>
  41030d:	49 89 80 88 08 00 00 	mov    %rax,0x888(%r8)
  410314:	48 89 15 ad fd 2a 00 	mov    %rdx,0x2afdad(%rip)        # 6c00c8 <main_arena+0x868>
  41031b:	83 3d ba 2b 2b 00 00 	cmpl   $0x0,0x2b2bba(%rip)        # 6c2edc <__libc_multiple_threads>
  410322:	74 0f                	je     410333 <arena_get2.isra.3+0x373>
  410324:	f0 ff 0d 35 15 2b 00 	lock decl 0x2b1535(%rip)        # 6c1860 <list_lock>
  41032b:	0f 85 16 63 00 00    	jne    416647 <_L_unlock_2292>
  410331:	eb 0c                	jmp    41033f <arena_get2.isra.3+0x37f>
  410333:	ff 0d 27 15 2b 00    	decl   0x2b1527(%rip)        # 6c1860 <list_lock>
  410339:	0f 85 08 63 00 00    	jne    416647 <_L_unlock_2292>
  41033f:	48 85 d2             	test   %rdx,%rdx
  410342:	0f 85 32 fd ff ff    	jne    41007a <arena_get2.isra.3+0xba>
  410348:	eb 1d                	jmp    410367 <arena_get2.isra.3+0x3a7>
  41034a:	48 8b 35 b7 f4 2a 00 	mov    0x2af4b7(%rip),%rsi        # 6bf808 <mp_+0x8>
  410351:	bf b8 08 00 00       	mov    $0x8b8,%edi
  410356:	e8 b5 f3 ff ff       	callq  40f710 <new_heap>
  41035b:	48 85 c0             	test   %rax,%rax
  41035e:	49 89 c0             	mov    %rax,%r8
  410361:	0f 85 bd fe ff ff    	jne    410224 <arena_get2.isra.3+0x264>
  410367:	64 83 3c 25 18 00 00 	cmpl   $0x0,%fs:0x18
  41036e:	00 00 
  410370:	74 01                	je     410373 <arena_get2.isra.3+0x3b3>
  410372:	f0 48 ff 0d 26 f4 2a 	lock decq 0x2af426(%rip)        # 6bf7a0 <narenas>
--
  4103db:	f0 0f b1 35 7d f4 2a 	lock cmpxchg %esi,0x2af47d(%rip)        # 6bf860 <main_arena>
  4103e2:	00 
  4103e3:	0f 85 98 62 00 00    	jne    416681 <_L_lock_2386>
  4103e9:	eb 0d                	jmp    4103f8 <arena_get_retry+0x58>
  4103eb:	0f b1 35 6e f4 2a 00 	cmpxchg %esi,0x2af46e(%rip)        # 6bf860 <main_arena>
  4103f2:	0f 85 89 62 00 00    	jne    416681 <_L_lock_2386>
  4103f8:	b8 60 f8 6b 00       	mov    $0x6bf860,%eax
  4103fd:	c3                   	retq   
  4103fe:	66 90                	xchg   %ax,%ax
  410400:	83 3d d5 2a 2b 00 00 	cmpl   $0x0,0x2b2ad5(%rip)        # 6c2edc <__libc_multiple_threads>
  410407:	74 0f                	je     410418 <arena_get_retry+0x78>
  410409:	f0 ff 0d 50 f4 2a 00 	lock decl 0x2af450(%rip)        # 6bf860 <main_arena>
  410410:	0f 85 8a 62 00 00    	jne    4166a0 <_L_unlock_2407>
  410416:	eb 0c                	jmp    410424 <arena_get_retry+0x84>
  410418:	ff 0d 42 f4 2a 00    	decl   0x2af442(%rip)        # 6bf860 <main_arena>
  41041e:	0f 85 7c 62 00 00    	jne    4166a0 <_L_unlock_2407>
  410424:	be 60 f8 6b 00       	mov    $0x6bf860,%esi
  410429:	4c 89 c7             	mov    %r8,%rdi
  41042c:	e9 8f fb ff ff       	jmpq   40ffc0 <arena_get2.isra.3>
  410431:	66 66 66 66 66 66 2e 	data32 data32 data32 data32 data32 nopw %cs:0x0(%rax,%rax,1)
  410438:	0f 1f 84 00 00 00 00 
  41043f:	00 

0000000000410440 <top_check>:
  410440:	41 56                	push   %r14
  410442:	41 55                	push   %r13
  410444:	41 54                	push   %r12
  410446:	55                   	push   %rbp
  410447:	53                   	push   %rbx
  410448:	48 83 ec 20          	sub    $0x20,%rsp
  41044c:	48 8b 3d 65 f4 2a 00 	mov    0x2af465(%rip),%rdi        # 6bf8b8 <main_arena+0x58>
  410453:	48 8b 1d d6 fd 2a 00 	mov    0x2afdd6(%rip),%rbx        # 6c0230 <_dl_pagesize>
  41045a:	48 81 ff b8 f8 6b 00 	cmp    $0x6bf8b8,%rdi
  410461:	0f 84 19 01 00 00    	je     410580 <top_check+0x140>
  410467:	48 8b 47 08          	mov    0x8(%rdi),%rax
  41046b:	a8 02                	test   $0x2,%al
  41046d:	75 11                	jne    410480 <top_check+0x40>
  41046f:	48 89 c2             	mov    %rax,%rdx
  410472:	48 83 e2 f8          	and    $0xfffffffffffffff8,%rdx
  410476:	48 83 fa 1f          	cmp    $0x1f,%rdx
  41047a:	0f 87 d0 00 00 00    	ja     410550 <top_check+0x110>
  410480:	8b 2d 2a f3 2a 00    	mov    0x2af32a(%rip),%ebp        # 6bf7b0 <check_action>
  410486:	89 e8                	mov    %ebp,%eax
  410488:	83 e0 05             	and    $0x5,%eax
  41048b:	83 f8 05             	cmp    $0x5,%eax
  41048e:	0f 84 7c 01 00 00    	je     410610 <top_check+0x1d0>
  410494:	40 f6 c5 01          	test   $0x1,%bpl
  410498:	0f 85 f2 00 00 00    	jne    410590 <top_check+0x150>
  41049e:	83 e5 02             	and    $0x2,%ebp
  4104a1:	0f 85 9c 01 00 00    	jne    410643 <top_check+0x203>
  4104a7:	31 ff                	xor    %edi,%edi
--
  410508:	48 89 2d a9 f3 2a 00 	mov    %rbp,0x2af3a9(%rip)        # 6bf8b8 <main_arena+0x58>
  41050f:	49 01 dd             	add    %rbx,%r13
  410512:	4c 29 e3             	sub    %r12,%rbx
  410515:	48 83 cb 01          	or     $0x1,%rbx
  410519:	4c 89 2d b8 fb 2a 00 	mov    %r13,0x2afbb8(%rip)        # 6c00d8 <main_arena+0x878>
  410520:	48 89 5d 08          	mov    %rbx,0x8(%rbp)
  410524:	48 83 c4 20          	add    $0x20,%rsp
  410528:	5b                   	pop    %rbx
  410529:	5d                   	pop    %rbp
  41052a:	41 5c                	pop    %r12
  41052c:	41 5d                	pop    %r13
  41052e:	41 5e                	pop    %r14
  410530:	c3                   	retq   
  410531:	0f 1f 80 00 00 00 00 	nopl   0x0(%rax)
  410538:	b8 10 00 00 00       	mov    $0x10,%eax
  41053d:	4c 29 e0             	sub    %r12,%rax
  410540:	49 89 c4             	mov    %rax,%r12
  410543:	e9 73 ff ff ff       	jmpq   4104bb <top_check+0x7b>
  410548:	0f 1f 84 00 00 00 00 	nopl   0x0(%rax,%rax,1)
  41054f:	00 
  410550:	a8 01                	test   $0x1,%al
  410552:	0f 84 28 ff ff ff    	je     410480 <top_check+0x40>
  410558:	f6 05 05 f3 2a 00 02 	testb  $0x2,0x2af305(%rip)        # 6bf864 <main_arena+0x4>
  41055f:	75 1f                	jne    410580 <top_check+0x140>
  410561:	48 8b 05 e8 f2 2a 00 	mov    0x2af2e8(%rip),%rax        # 6bf850 <mp_+0x50>
  410568:	48 03 05 69 fb 2a 00 	add    0x2afb69(%rip),%rax        # 6c00d8 <main_arena+0x878>
  41056f:	48 01 fa             	add    %rdi,%rdx
  410572:	48 39 c2             	cmp    %rax,%rdx
  410575:	0f 85 05 ff ff ff    	jne    410480 <top_check+0x40>
  41057b:	0f 1f 44 00 00       	nopl   0x0(%rax,%rax,1)
  410580:	48 83 c4 20          	add    $0x20,%rsp
  410584:	31 c0                	xor    %eax,%eax
  410586:	5b                   	pop    %rbx
  410587:	5d                   	pop    %rbp
  410588:	41 5c                	pop    %r12
  41058a:	41 5d                	pop    %r13
  41058c:	41 5e                	pop    %r14
  41058e:	c3                   	retq   
  41058f:	90                   	nop
  410590:	48 8d 74 24 10       	lea    0x10(%rsp),%rsi
  410595:	31 c9                	xor    %ecx,%ecx
  410597:	ba 10 00 00 00       	mov    $0x10,%edx
  41059c:	c6 44 24 10 00       	movb   $0x0,0x10(%rsp)
  4105a1:	e8 5a 5f 03 00       	callq  446500 <_itoa_word>
  4105a6:	48 39 e0             	cmp    %rsp,%rax
  4105a9:	49 89 c4             	mov    %rax,%r12
--
  410b0c:	8b 05 52 ed 2a 00    	mov    0x2aed52(%rip),%eax        # 6bf864 <main_arena+0x4>
  410b12:	e9 74 fe ff ff       	jmpq   41098b <malloc_consolidate+0x33b>
  410b17:	44 89 ef             	mov    %r13d,%edi
  410b1a:	ba 44 45 49 00       	mov    $0x494544,%edx
  410b1f:	be 3c 0d 4b 00       	mov    $0x4b0d3c,%esi
  410b24:	83 e7 02             	and    $0x2,%edi
  410b27:	31 c0                	xor    %eax,%eax
  410b29:	4c 89 5c 24 20       	mov    %r11,0x20(%rsp)
  410b2e:	4c 89 4c 24 18       	mov    %r9,0x18(%rsp)
  410b33:	4c 89 54 24 08       	mov    %r10,0x8(%rsp)
  410b38:	e8 f3 7d ff ff       	callq  408930 <__libc_message>
  410b3d:	4c 8b 54 24 08       	mov    0x8(%rsp),%r10
  410b42:	4c 8b 4c 24 18       	mov    0x18(%rsp),%r9
  410b47:	4c 8b 5c 24 20       	mov    0x20(%rsp),%r11
  410b4c:	e9 a9 fb ff ff       	jmpq   4106fa <malloc_consolidate+0xaa>
  410b51:	8b 7c 24 08          	mov    0x8(%rsp),%edi
  410b55:	ba 44 45 49 00       	mov    $0x494544,%edx
  410b5a:	be 3c 0d 4b 00       	mov    $0x4b0d3c,%esi
  410b5f:	31 c0                	xor    %eax,%eax
  410b61:	4c 89 5c 24 28       	mov    %r11,0x28(%rsp)
  410b66:	4c 89 4c 24 20       	mov    %r9,0x20(%rsp)
--
  4113ae:	48 8b 05 03 e5 2a 00 	mov    0x2ae503(%rip),%rax        # 6bf8b8 <main_arena+0x58>
  4113b5:	48 8b 40 08          	mov    0x8(%rax),%rax
  4113b9:	48 83 e0 f8          	and    $0xfffffffffffffff8,%rax
  4113bd:	48 3b 05 3c e4 2a 00 	cmp    0x2ae43c(%rip),%rax        # 6bf800 <mp_>
  4113c4:	0f 82 0e ff ff ff    	jb     4112d8 <_int_free+0x568>
  4113ca:	48 8b 3d 37 e4 2a 00 	mov    0x2ae437(%rip),%rdi        # 6bf808 <mp_+0x8>
  4113d1:	ba d8 00 6c 00       	mov    $0x6c00d8,%edx
  4113d6:	be b8 f8 6b 00       	mov    $0x6bf8b8,%esi
  4113db:	e8 30 ea ff ff       	callq  40fe10 <systrim.isra.1>
  4113e0:	e9 f3 fe ff ff       	jmpq   4112d8 <_int_free+0x568>
  4113e5:	4c 89 cf             	mov    %r9,%rdi
  4113e8:	bd c8 4c 49 00       	mov    $0x494cc8,%ebp
  4113ed:	44 8b 25 bc e3 2a 00 	mov    0x2ae3bc(%rip),%r12d        # 6bf7b0 <check_action>
  4113f4:	44 89 e0             	mov    %r12d,%eax
  4113f7:	83 e0 05             	and    $0x5,%eax
  4113fa:	83 f8 05             	cmp    $0x5,%eax
  4113fd:	0f 84 a4 00 00 00    	je     4114a7 <_int_free+0x737>
  411403:	41 f6 c4 01          	test   $0x1,%r12b
  411407:	75 23                	jne    41142c <_int_free+0x6bc>
  411409:	41 83 e4 02          	and    $0x2,%r12d
  41140d:	0f 84 7a fa ff ff    	je     410e8d <_int_free+0x11d>
--
  411a58:	f0 0f b1 35 00 de 2a 	lock cmpxchg %esi,0x2ade00(%rip)        # 6bf860 <main_arena>
  411a5f:	00 
  411a60:	0f 85 e5 4c 00 00    	jne    41674b <_L_lock_6245>
  411a66:	eb 0d                	jmp    411a75 <free_check+0x45>
  411a68:	0f b1 35 f1 dd 2a 00 	cmpxchg %esi,0x2addf1(%rip)        # 6bf860 <main_arena>
  411a6f:	0f 85 d6 4c 00 00    	jne    41674b <_L_lock_6245>
  411a75:	31 f6                	xor    %esi,%esi
  411a77:	48 89 ef             	mov    %rbp,%rdi
  411a7a:	e8 a1 d9 ff ff       	callq  40f420 <mem2chunk_check>
  411a7f:	48 85 c0             	test   %rax,%rax
  411a82:	48 89 c3             	mov    %rax,%rbx
  411a85:	0f 84 f0 03 00 00    	je     411e7b <free_check+0x44b>
  411a8b:	48 8b 40 08          	mov    0x8(%rax),%rax
  411a8f:	a8 02                	test   $0x2,%al
  411a91:	0f 85 21 02 00 00    	jne    411cb8 <free_check+0x288>
  411a97:	48 89 c5             	mov    %rax,%rbp
  411a9a:	48 83 e5 f8          	and    $0xfffffffffffffff8,%rbp
  411a9e:	48 89 ea             	mov    %rbp,%rdx
  411aa1:	48 f7 da             	neg    %rdx
  411aa4:	48 39 d3             	cmp    %rdx,%rbx
  411aa7:	0f 87 ab 05 00 00    	ja     412058 <free_check+0x628>
  411aad:	f6 c3 0f             	test   $0xf,%bl
  411ab0:	0f 85 a2 05 00 00    	jne    412058 <free_check+0x628>
  411ab6:	48 83 fd 1f          	cmp    $0x1f,%rbp
  411aba:	0f 86 08 06 00 00    	jbe    4120c8 <free_check+0x698>
--
  411ad5:	48 8b 15 dc dd 2a 00 	mov    0x2adddc(%rip),%rdx        # 6bf8b8 <main_arena+0x58>
  411adc:	4c 8d 24 2b          	lea    (%rbx,%rbp,1),%r12
  411ae0:	48 39 d3             	cmp    %rdx,%rbx
  411ae3:	0f 84 ed 05 00 00    	je     4120d6 <free_check+0x6a6>
  411ae9:	f6 05 74 dd 2a 00 02 	testb  $0x2,0x2add74(%rip)        # 6bf864 <main_arena+0x4>
  411af0:	0f 84 a2 05 00 00    	je     412098 <free_check+0x668>
  411af6:	49 8b 54 24 08       	mov    0x8(%r12),%rdx
  411afb:	f6 c2 01             	test   $0x1,%dl
  411afe:	0f 84 86 05 00 00    	je     41208a <free_check+0x65a>
  411b04:	49 89 d5             	mov    %rdx,%r13
  411b07:	49 83 e5 f8          	and    $0xfffffffffffffff8,%r13
  411b0b:	48 83 fa 10          	cmp    $0x10,%rdx
  411b0f:	0f 86 67 05 00 00    	jbe    41207c <free_check+0x64c>
  411b15:	4c 3b 2d bc e5 2a 00 	cmp    0x2ae5bc(%rip),%r13        # 6c00d8 <main_arena+0x878>
  411b1c:	0f 83 5a 05 00 00    	jae    41207c <free_check+0x64c>
  411b22:	8b 35 48 fd 2a 00    	mov    0x2afd48(%rip),%esi        # 6c1870 <perturb_byte>
  411b28:	85 f6                	test   %esi,%esi
  411b2a:	0f 85 36 05 00 00    	jne    412066 <free_check+0x636>
  411b30:	a8 01                	test   $0x1,%al
  411b32:	75 74                	jne    411ba8 <free_check+0x178>
  411b34:	48 8b 03             	mov    (%rbx),%rax
  411b37:	48 29 c3             	sub    %rax,%rbx
  411b3a:	48 01 c5             	add    %rax,%rbp
  411b3d:	48 8b 43 10          	mov    0x10(%rbx),%rax
  411b41:	48 8b 53 18          	mov    0x18(%rbx),%rdx
  411b45:	48 3b 58 18          	cmp    0x18(%rax),%rbx
  411b49:	0f 85 e9 05 00 00    	jne    412138 <free_check+0x708>
  411b4f:	48 3b 5a 10          	cmp    0x10(%rdx),%rbx
  411b53:	0f 85 df 05 00 00    	jne    412138 <free_check+0x708>
  411b59:	48 81 7b 08 ff 03 00 	cmpq   $0x3ff,0x8(%rbx)
  411b60:	00 
  411b61:	48 89 50 18          	mov    %rdx,0x18(%rax)
  411b65:	48 89 42 10          	mov    %rax,0x10(%rdx)
  411b69:	76 3d                	jbe    411ba8 <free_check+0x178>
--
  411ba8:	4c 3b 25 09 dd 2a 00 	cmp    0x2add09(%rip),%r12        # 6bf8b8 <main_arena+0x58>
  411baf:	0f 84 1b 03 00 00    	je     411ed0 <free_check+0x4a0>
  411bb5:	43 f6 44 2c 08 01    	testb  $0x1,0x8(%r12,%r13,1)
  411bbb:	0f 85 47 02 00 00    	jne    411e08 <free_check+0x3d8>
  411bc1:	49 8b 44 24 10       	mov    0x10(%r12),%rax
  411bc6:	49 8b 54 24 18       	mov    0x18(%r12),%rdx
  411bcb:	4c 3b 60 18          	cmp    0x18(%rax),%r12
  411bcf:	0f 85 de 05 00 00    	jne    4121b3 <free_check+0x783>
  411bd5:	4c 3b 62 10          	cmp    0x10(%rdx),%r12
  411bd9:	0f 85 d4 05 00 00    	jne    4121b3 <free_check+0x783>
  411bdf:	49 81 7c 24 08 ff 03 	cmpq   $0x3ff,0x8(%r12)
  411be6:	00 00 
  411be8:	48 89 50 18          	mov    %rdx,0x18(%rax)
  411bec:	48 89 42 10          	mov    %rax,0x10(%rdx)
  411bf0:	0f 87 1d 02 00 00    	ja     411e13 <free_check+0x3e3>
  411bf6:	4c 01 ed             	add    %r13,%rbp
  411bf9:	48 8b 05 c8 dc 2a 00 	mov    0x2adcc8(%rip),%rax        # 6bf8c8 <main_arena+0x68>
  411c00:	48 81 78 18 b8 f8 6b 	cmpq   $0x6bf8b8,0x18(%rax)
  411c07:	00 
  411c08:	0f 85 ac 04 00 00    	jne    4120ba <free_check+0x68a>
  411c0e:	48 81 fd ff 03 00 00 	cmp    $0x3ff,%rbp
  411c15:	48 89 43 10          	mov    %rax,0x10(%rbx)
  411c19:	48 c7 43 18 b8 f8 6b 	movq   $0x6bf8b8,0x18(%rbx)
  411c20:	00 
  411c21:	76 10                	jbe    411c33 <free_check+0x203>
  411c23:	48 c7 43 20 00 00 00 	movq   $0x0,0x20(%rbx)
  411c2a:	00 
  411c2b:	48 c7 43 28 00 00 00 	movq   $0x0,0x28(%rbx)
  411c32:	00 
  411c33:	48 89 1d 8e dc 2a 00 	mov    %rbx,0x2adc8e(%rip)        # 6bf8c8 <main_arena+0x68>
  411c3a:	48 89 58 18          	mov    %rbx,0x18(%rax)
  411c3e:	48 89 e8             	mov    %rbp,%rax
  411c41:	48 83 c8 01          	or     $0x1,%rax
  411c45:	48 89 43 08          	mov    %rax,0x8(%rbx)
  411c49:	48 89 2c 2b          	mov    %rbp,(%rbx,%rbp,1)
  411c4d:	48 81 fd ff ff 00 00 	cmp    $0xffff,%rbp
  411c54:	76 2a                	jbe    411c80 <free_check+0x250>
  411c56:	f6 05 07 dc 2a 00 01 	testb  $0x1,0x2adc07(%rip)        # 6bf864 <main_arena+0x4>
  411c5d:	0f 84 87 02 00 00    	je     411eea <free_check+0x4ba>
  411c63:	48 8b 05 4e dc 2a 00 	mov    0x2adc4e(%rip),%rax        # 6bf8b8 <main_arena+0x58>
  411c6a:	48 8b 40 08          	mov    0x8(%rax),%rax
  411c6e:	48 83 e0 f8          	and    $0xfffffffffffffff8,%rax
  411c72:	48 3b 05 87 db 2a 00 	cmp    0x2adb87(%rip),%rax        # 6bf800 <mp_>
  411c79:	0f 83 e1 01 00 00    	jae    411e60 <free_check+0x430>
  411c7f:	90                   	nop
  411c80:	83 3d 55 12 2b 00 00 	cmpl   $0x0,0x2b1255(%rip)        # 6c2edc <__libc_multiple_threads>
  411c87:	74 0f                	je     411c98 <free_check+0x268>
  411c89:	f0 ff 0d d0 db 2a 00 	lock decl 0x2adbd0(%rip)        # 6bf860 <main_arena>
  411c90:	0f 85 d4 4a 00 00    	jne    41676a <_L_unlock_6500>
  411c96:	eb 0c                	jmp    411ca4 <free_check+0x274>
  411c98:	ff 0d c2 db 2a 00    	decl   0x2adbc2(%rip)        # 6bf860 <main_arena>
  411c9e:	0f 85 c6 4a 00 00    	jne    41676a <_L_unlock_6500>
  411ca4:	48 83 c4 20          	add    $0x20,%rsp
  411ca8:	5b                   	pop    %rbx
  411ca9:	5d                   	pop    %rbp
  411caa:	41 5c                	pop    %r12
  411cac:	41 5d                	pop    %r13
  411cae:	41 5e                	pop    %r14
  411cb0:	c3                   	retq   
  411cb1:	0f 1f 80 00 00 00 00 	nopl   0x0(%rax)
  411cb8:	83 3d 1d 12 2b 00 00 	cmpl   $0x0,0x2b121d(%rip)        # 6c2edc <__libc_multiple_threads>
  411cbf:	74 0f                	je     411cd0 <free_check+0x2a0>
  411cc1:	f0 ff 0d 98 db 2a 00 	lock decl 0x2adb98(%rip)        # 6bf860 <main_arena>
  411cc8:	0f 85 bb 4a 00 00    	jne    416789 <_L_unlock_6539>
  411cce:	eb 0c                	jmp    411cdc <free_check+0x2ac>
  411cd0:	ff 0d 8a db 2a 00    	decl   0x2adb8a(%rip)        # 6bf860 <main_arena>
  411cd6:	0f 85 ad 4a 00 00    	jne    416789 <_L_unlock_6539>
  411cdc:	48 8b 43 08          	mov    0x8(%rbx),%rax
  411ce0:	48 89 c6             	mov    %rax,%rsi
  411ce3:	48 83 e6 f8          	and    $0xfffffffffffffff8,%rsi
  411ce7:	a8 02                	test   $0x2,%al
  411ce9:	0f 84 f5 03 00 00    	je     4120e4 <free_check+0x6b4>
  411cef:	48 8b 03             	mov    (%rbx),%rax
  411cf2:	48 89 df             	mov    %rbx,%rdi
  411cf5:	48 29 c7             	sub    %rax,%rdi
  411cf8:	48 01 c6             	add    %rax,%rsi
  411cfb:	48 8b 05 2e e5 2a 00 	mov    0x2ae52e(%rip),%rax        # 6c0230 <_dl_pagesize>
  411d02:	48 89 fa             	mov    %rdi,%rdx
  411d05:	48 09 f2             	or     %rsi,%rdx
  411d08:	48 83 e8 01          	sub    $0x1,%rax
  411d0c:	48 85 c2             	test   %rax,%rdx
  411d0f:	0f 85 e8 03 00 00    	jne    4120fd <free_check+0x6cd>
  411d15:	f0 ff 0d 0c db 2a 00 	lock decl 0x2adb0c(%rip)        # 6bf828 <mp_+0x28>
  411d1c:	48 89 f0             	mov    %rsi,%rax
  411d1f:	48 f7 d8             	neg    %rax
  411d22:	f0 48 01 05 0e db 2a 	lock add %rax,0x2adb0e(%rip)        # 6bf838 <mp_+0x38>
--
  411d53:	48 3b 05 7e e3 2a 00 	cmp    0x2ae37e(%rip),%rax        # 6c00d8 <main_arena+0x878>
  411d5a:	0f 83 b6 03 00 00    	jae    412116 <free_check+0x6e6>
  411d60:	8b 35 0a fb 2a 00    	mov    0x2afb0a(%rip),%esi        # 6c1870 <perturb_byte>
  411d66:	4c 8d 43 10          	lea    0x10(%rbx),%r8
  411d6a:	85 f6                	test   %esi,%esi
  411d6c:	0f 85 b2 03 00 00    	jne    412124 <free_check+0x6f4>
  411d72:	64 83 3c 25 18 00 00 	cmpl   $0x0,%fs:0x18
  411d79:	00 00 
  411d7b:	74 01                	je     411d7e <free_check+0x34e>
  411d7d:	f0 83 25 df da 2a 00 	lock andl $0xfffffffe,0x2adadf(%rip)        # 6bf864 <main_arena+0x4>
  411d84:	fe 
  411d85:	c1 ed 04             	shr    $0x4,%ebp
  411d88:	83 ed 02             	sub    $0x2,%ebp
  411d8b:	89 e8                	mov    %ebp,%eax
  411d8d:	48 8b 0c c5 68 f8 6b 	mov    0x6bf868(,%rax,8),%rcx
  411d94:	00 
  411d95:	48 8d 14 c5 68 f8 6b 	lea    0x6bf868(,%rax,8),%rdx
  411d9c:	00 
  411d9d:	48 39 cb             	cmp    %rcx,%rbx
  411da0:	0f 84 e8 01 00 00    	je     411f8e <free_check+0x55e>
  411da6:	be ff ff ff ff       	mov    $0xffffffff,%esi
  411dab:	eb 0f                	jmp    411dbc <free_check+0x38c>
  411dad:	0f 1f 00             	nopl   (%rax)
  411db0:	48 39 c3             	cmp    %rax,%rbx
  411db3:	0f 84 d5 01 00 00    	je     411f8e <free_check+0x55e>
  411db9:	48 89 c1             	mov    %rax,%rcx
  411dbc:	48 85 c9             	test   %rcx,%rcx
  411dbf:	74 09                	je     411dca <free_check+0x39a>
  411dc1:	8b 41 08             	mov    0x8(%rcx),%eax
  411dc4:	c1 e8 04             	shr    $0x4,%eax
--
  411e84:	f0 ff 0d d5 d9 2a 00 	lock decl 0x2ad9d5(%rip)        # 6bf860 <main_arena>
  411e8b:	0f 85 17 49 00 00    	jne    4167a8 <_L_unlock_6811>
  411e91:	eb 0c                	jmp    411e9f <free_check+0x46f>
  411e93:	ff 0d c7 d9 2a 00    	decl   0x2ad9c7(%rip)        # 6bf860 <main_arena>
  411e99:	0f 85 09 49 00 00    	jne    4167a8 <_L_unlock_6811>
  411e9f:	8b 1d 0b d9 2a 00    	mov    0x2ad90b(%rip),%ebx        # 6bf7b0 <check_action>
  411ea5:	89 d8                	mov    %ebx,%eax
  411ea7:	83 e0 05             	and    $0x5,%eax
  411eaa:	83 f8 05             	cmp    $0x5,%eax
  411ead:	0f 84 c0 00 00 00    	je     411f73 <free_check+0x543>
  411eb3:	f6 c3 01             	test   $0x1,%bl
  411eb6:	75 41                	jne    411ef9 <free_check+0x4c9>
  411eb8:	83 e3 02             	and    $0x2,%ebx
  411ebb:	0f 84 e3 fd ff ff    	je     411ca4 <free_check+0x274>
  411ec1:	e8 1a 4b ff ff       	callq  4069e0 <abort>
  411ec6:	66 2e 0f 1f 84 00 00 	nopw   %cs:0x0(%rax,%rax,1)
  411ecd:	00 00 00 
  411ed0:	4c 01 ed             	add    %r13,%rbp
  411ed3:	48 89 e8             	mov    %rbp,%rax
  411ed6:	48 83 c8 01          	or     $0x1,%rax
  411eda:	48 89 43 08          	mov    %rax,0x8(%rbx)
  411ede:	48 89 1d d3 d9 2a 00 	mov    %rbx,0x2ad9d3(%rip)        # 6bf8b8 <main_arena+0x58>
  411ee5:	e9 63 fd ff ff       	jmpq   411c4d <free_check+0x21d>
  411eea:	bf 60 f8 6b 00       	mov    $0x6bf860,%edi
  411eef:	e8 5c e7 ff ff       	callq  410650 <malloc_consolidate>
  411ef4:	e9 6a fd ff ff       	jmpq   411c63 <free_check+0x233>
  411ef9:	48 8d 74 24 10       	lea    0x10(%rsp),%rsi
  411efe:	31 c9                	xor    %ecx,%ecx
  411f00:	48 89 ef             	mov    %rbp,%rdi
  411f03:	ba 10 00 00 00       	mov    $0x10,%edx
  411f08:	c6 44 24 10 00       	movb   $0x0,0x10(%rsp)
  411f0d:	e8 ee 45 03 00       	callq  446500 <_itoa_word>
  411f12:	48 39 e0             	cmp    %rsp,%rax
  411f15:	48 89 c5             	mov    %rax,%rbp
  411f18:	76 25                	jbe    411f3f <free_check+0x50f>
  411f1a:	48 89 c2             	mov    %rax,%rdx
  411f1d:	48 89 c7             	mov    %rax,%rdi
  411f20:	be 30 00 00 00       	mov    $0x30,%esi
  411f25:	48 29 e2             	sub    %rsp,%rdx
  411f28:	4c 8d 68 ff          	lea    -0x1(%rax),%r13
  411f2c:	48 29 d7             	sub    %rdx,%rdi
  411f2f:	e8 1c a1 00 00       	callq  41c050 <memset>
--
  412e2b:	8b 05 33 ca 2a 00    	mov    0x2aca33(%rip),%eax        # 6bf864 <main_arena+0x4>
  412e31:	48 89 f7             	mov    %rsi,%rdi
  412e34:	48 f7 d7             	not    %rdi
  412e37:	48 89 d1             	mov    %rdx,%rcx
  412e3a:	48 89 7c 24 20       	mov    %rdi,0x20(%rsp)
  412e3f:	4c 29 e9             	sub    %r13,%rcx
  412e42:	83 e0 02             	and    $0x2,%eax
  412e45:	48 0f 44 d1          	cmove  %rcx,%rdx
  412e49:	48 89 f9             	mov    %rdi,%rcx
  412e4c:	4c 8d 3c 32          	lea    (%rdx,%rsi,1),%r15
  412e50:	49 21 cf             	and    %rcx,%r15
  412e53:	4d 85 ff             	test   %r15,%r15
  412e56:	4c 89 f9             	mov    %r15,%rcx
  412e59:	0f 8e 95 00 00 00    	jle    412ef4 <_int_malloc+0xcc4>
  412e5f:	4c 89 7c 24 28       	mov    %r15,0x28(%rsp)
  412e64:	4c 89 ff             	mov    %r15,%rdi
  412e67:	ff 15 83 d2 2a 00    	callq  *0x2ad283(%rip)        # 6c00f0 <__morecore>
  412e6d:	48 89 c2             	mov    %rax,%rdx
  412e70:	8b 05 ee c9 2a 00    	mov    0x2ac9ee(%rip),%eax        # 6bf864 <main_arena+0x4>
  412e76:	48 8b 4c 24 28       	mov    0x28(%rsp),%rcx
  412e7b:	44 8b 5c 24 30       	mov    0x30(%rsp),%r11d
  412e80:	83 e0 02             	and    $0x2,%eax
  412e83:	48 85 d2             	test   %rdx,%rdx
  412e86:	74 6c                	je     412ef4 <_int_malloc+0xcc4>
  412e88:	48 8b 05 b1 e8 2a 00 	mov    0x2ae8b1(%rip),%rax        # 6c1740 <__after_morecore_hook>
  412e8f:	48 85 c0             	test   %rax,%rax
  412e92:	74 16                	je     412eaa <_int_malloc+0xc7a>
  412e94:	48 89 54 24 30       	mov    %rdx,0x30(%rsp)
  412e99:	44 89 5c 24 28       	mov    %r11d,0x28(%rsp)
  412e9e:	ff d0                	callq  *%rax
  412ea0:	44 8b 5c 24 28       	mov    0x28(%rsp),%r11d
  412ea5:	48 8b 54 24 30       	mov    0x30(%rsp),%rdx
  412eaa:	31 c0                	xor    %eax,%eax
  412eac:	48 83 3d 9c c9 2a 00 	cmpq   $0x0,0x2ac99c(%rip)        # 6bf850 <mp_+0x50>
  412eb3:	00 
  412eb4:	75 07                	jne    412ebd <_int_malloc+0xc8d>
  412eb6:	48 89 15 93 c9 2a 00 	mov    %rdx,0x2ac993(%rip)        # 6bf850 <mp_+0x50>
  412ebd:	4c 89 fe             	mov    %r15,%rsi
  412ec0:	48 03 35 11 d2 2a 00 	add    0x2ad211(%rip),%rsi        # 6c00d8 <main_arena+0x878>
  412ec7:	49 39 d6             	cmp    %rdx,%r14
  412eca:	48 89 35 07 d2 2a 00 	mov    %rsi,0x2ad207(%rip)        # 6c00d8 <main_arena+0x878>
  412ed1:	75 64                	jne    412f37 <_int_malloc+0xd07>
  412ed3:	45 84 db             	test   %r11b,%r11b
  412ed6:	74 5f                	je     412f37 <_int_malloc+0xd07>
  412ed8:	4f 8d 14 2f          	lea    (%r15,%r13,1),%r10
  412edc:	48 89 f2             	mov    %rsi,%rdx
  412edf:	48 8b 05 d2 c9 2a 00 	mov    0x2ac9d2(%rip),%rax        # 6bf8b8 <main_arena+0x58>
  412ee6:	49 83 ca 01          	or     $0x1,%r10
  412eea:	4d 89 54 24 08       	mov    %r10,0x8(%r12)
  412eef:	e9 b7 fd ff ff       	jmpq   412cab <_int_malloc+0xa7b>
  412ef4:	85 c0                	test   %eax,%eax
  412ef6:	75 12                	jne    412f0a <_int_malloc+0xcda>
  412ef8:	48 8b 44 24 10       	mov    0x10(%rsp),%rax
  412efd:	49 8d 4c 05 00       	lea    0x0(%r13,%rax,1),%rcx
  412f02:	4c 01 f9             	add    %r15,%rcx
  412f05:	48 23 4c 24 20       	and    0x20(%rsp),%rcx
  412f0a:	48 81 f9 00 00 10 00 	cmp    $0x100000,%rcx
  412f11:	41 bf 00 00 10 00    	mov    $0x100000,%r15d
  412f17:	4c 0f 43 f9          	cmovae %rcx,%r15
  412f1b:	4c 39 fd             	cmp    %r15,%rbp
  412f1e:	0f 82 d9 01 00 00    	jb     4130fd <_int_malloc+0xecd>
  412f24:	48 8b 15 ad d1 2a 00 	mov    0x2ad1ad(%rip),%rdx        # 6c00d8 <main_arena+0x878>
  412f2b:	48 8b 05 86 c9 2a 00 	mov    0x2ac986(%rip),%rax        # 6bf8b8 <main_arena+0x58>
  412f32:	e9 74 fd ff ff       	jmpq   412cab <_int_malloc+0xa7b>
  412f37:	f6 05 26 c9 2a 00 02 	testb  $0x2,0x2ac926(%rip)        # 6bf864 <main_arena+0x4>
  412f3e:	0f 85 59 01 00 00    	jne    41309d <_int_malloc+0xe6d>
  412f44:	4d 85 ed             	test   %r13,%r13
  412f47:	0f 95 c0             	setne  %al
  412f4a:	49 39 d6             	cmp    %rdx,%r14
  412f4d:	0f 87 fe 00 00 00    	ja     413051 <_int_malloc+0xe21>
  412f53:	84 c0                	test   %al,%al
  412f55:	74 10                	je     412f67 <_int_malloc+0xd37>
  412f57:	48 89 d0             	mov    %rdx,%rax
  412f5a:	4c 29 f0             	sub    %r14,%rax
  412f5d:	48 01 c6             	add    %rax,%rsi
  412f60:	48 89 35 71 d1 2a 00 	mov    %rsi,0x2ad171(%rip)        # 6c00d8 <main_arena+0x878>
  412f67:	48 89 d1             	mov    %rdx,%rcx
  412f6a:	83 e1 0f             	and    $0xf,%ecx
  412f6d:	0f 84 80 01 00 00    	je     4130f3 <_int_malloc+0xec3>
  412f73:	b8 10 00 00 00       	mov    $0x10,%eax
  412f78:	48 29 c8             	sub    %rcx,%rax
  412f7b:	4c 8d 34 02          	lea    (%rdx,%rax,1),%r14
  412f7f:	4c 01 e8             	add    %r13,%rax
  412f82:	4e 8d 14 38          	lea    (%rax,%r15,1),%r10
  412f86:	4c 01 d2             	add    %r10,%rdx
  412f89:	48 29 d0             	sub    %rdx,%rax
  412f8c:	48 89 c1             	mov    %rax,%rcx
  412f8f:	48 8b 44 24 10       	mov    0x10(%rsp),%rax
  412f94:	48 01 d0             	add    %rdx,%rax
  412f97:	48 23 44 24 20       	and    0x20(%rsp),%rax
  412f9c:	48 01 c1             	add    %rax,%rcx
  412f9f:	48 85 c9             	test   %rcx,%rcx
  412fa2:	49 89 cf             	mov    %rcx,%r15
  412fa5:	0f 88 2f 01 00 00    	js     4130da <_int_malloc+0xeaa>
  412fab:	48 89 cf             	mov    %rcx,%rdi
  412fae:	48 89 4c 24 10       	mov    %rcx,0x10(%rsp)
--
  412fd7:	48 8b 35 fa d0 2a 00 	mov    0x2ad0fa(%rip),%rsi        # 6c00d8 <main_arena+0x878>
  412fde:	4c 29 f0             	sub    %r14,%rax
  412fe1:	48 8d 14 31          	lea    (%rcx,%rsi,1),%rdx
  412fe5:	4c 89 35 cc c8 2a 00 	mov    %r14,0x2ac8cc(%rip)        # 6bf8b8 <main_arena+0x58>
  412fec:	49 01 c7             	add    %rax,%r15
  412fef:	4c 89 f0             	mov    %r14,%rax
  412ff2:	49 83 cf 01          	or     $0x1,%r15
  412ff6:	4d 85 ed             	test   %r13,%r13
  412ff9:	4d 89 7e 08          	mov    %r15,0x8(%r14)
  412ffd:	48 89 15 d4 d0 2a 00 	mov    %rdx,0x2ad0d4(%rip)        # 6c00d8 <main_arena+0x878>
  413004:	0f 84 a1 fc ff ff    	je     412cab <_int_malloc+0xa7b>
  41300a:	49 83 ed 20          	sub    $0x20,%r13
  41300e:	49 83 e5 f0          	and    $0xfffffffffffffff0,%r13
  413012:	4c 89 e8             	mov    %r13,%rax
  413015:	48 83 c8 01          	or     $0x1,%rax
  413019:	49 83 fd 1f          	cmp    $0x1f,%r13
  41301d:	49 89 44 24 08       	mov    %rax,0x8(%r12)
  413022:	4b c7 44 2c 08 11 00 	movq   $0x11,0x8(%r12,%r13,1)
  413029:	00 00 
  41302b:	4b c7 44 2c 18 11 00 	movq   $0x11,0x18(%r12,%r13,1)
  413032:	00 00 
  413034:	0f 86 ea fe ff ff    	jbe    412f24 <_int_malloc+0xcf4>
  41303a:	ba 01 00 00 00       	mov    $0x1,%edx
  41303f:	4c 89 e6             	mov    %r12,%rsi
  413042:	bf 60 f8 6b 00       	mov    $0x6bf860,%edi
  413047:	e8 24 dd ff ff       	callq  410d70 <_int_free>
  41304c:	e9 d3 fe ff ff       	jmpq   412f24 <_int_malloc+0xcf4>
  413051:	84 c0                	test   %al,%al
  413053:	0f 84 0e ff ff ff    	je     412f67 <_int_malloc+0xd37>
  413059:	be 90 54 49 00       	mov    $0x495490,%esi
--
  413068:	48 8b 15 69 d0 2a 00 	mov    0x2ad069(%rip),%rdx        # 6c00d8 <main_arena+0x878>
  41306f:	48 8b 05 42 c8 2a 00 	mov    0x2ac842(%rip),%rax        # 6bf8b8 <main_arena+0x58>
  413076:	e9 30 fc ff ff       	jmpq   412cab <_int_malloc+0xa7b>
  41307b:	48 89 44 24 20       	mov    %rax,0x20(%rsp)
  413080:	48 89 4c 24 10       	mov    %rcx,0x10(%rsp)
  413085:	ff d2                	callq  *%rdx
  413087:	48 8b 35 4a d0 2a 00 	mov    0x2ad04a(%rip),%rsi        # 6c00d8 <main_arena+0x878>
  41308e:	48 8b 4c 24 10       	mov    0x10(%rsp),%rcx
  413093:	48 8b 44 24 20       	mov    0x20(%rsp),%rax
  413098:	e9 41 ff ff ff       	jmpq   412fde <_int_malloc+0xdae>
  41309d:	48 89 d1             	mov    %rdx,%rcx
  4130a0:	83 e1 0f             	and    $0xf,%ecx
  4130a3:	0f 85 9a 00 00 00    	jne    413143 <_int_malloc+0xf13>
  4130a9:	45 31 ff             	xor    %r15d,%r15d
  4130ac:	45 84 db             	test   %r11b,%r11b
  4130af:	49 89 d6             	mov    %rdx,%r14
  4130b2:	0f 84 26 ff ff ff    	je     412fde <_int_malloc+0xdae>
  4130b8:	31 ff                	xor    %edi,%edi
  4130ba:	ff 15 30 d0 2a 00    	callq  *0x2ad030(%rip)        # 6c00f0 <__morecore>
  4130c0:	48 85 c0             	test   %rax,%rax
  4130c3:	0f 84 5b fe ff ff    	je     412f24 <_int_malloc+0xcf4>
  4130c9:	48 8b 35 08 d0 2a 00 	mov    0x2ad008(%rip),%rsi        # 6c00d8 <main_arena+0x878>
  4130d0:	31 c9                	xor    %ecx,%ecx
  4130d2:	45 31 ff             	xor    %r15d,%r15d
  4130d5:	e9 04 ff ff ff       	jmpq   412fde <_int_malloc+0xdae>
  4130da:	b9 3f 48 49 00       	mov    $0x49483f,%ecx
  4130df:	ba 22 0a 00 00       	mov    $0xa22,%edx
  4130e4:	be c8 44 49 00       	mov    $0x4944c8,%esi
  4130e9:	bf 39 46 49 00       	mov    $0x494639,%edi
  4130ee:	e8 ad c5 ff ff       	callq  40f6a0 <__malloc_assert>
  4130f3:	49 89 d6             	mov    %rdx,%r14
  4130f6:	31 c0                	xor    %eax,%eax
  4130f8:	e9 82 fe ff ff       	jmpq   412f7f <_int_malloc+0xd4f>
  4130fd:	45 31 c9             	xor    %r9d,%r9d
  413100:	ba 03 00 00 00       	mov    $0x3,%edx
  413105:	31 ff                	xor    %edi,%edi
  413107:	41 b8 ff ff ff ff    	mov    $0xffffffff,%r8d
  41310d:	b9 22 00 00 00       	mov    $0x22,%ecx
  413112:	4c 89 fe             	mov    %r15,%rsi
  413115:	e8 46 18 02 00       	callq  434960 <__mmap>
  41311a:	48 83 f8 ff          	cmp    $0xffffffffffffffff,%rax
  41311e:	48 89 c2             	mov    %rax,%rdx
--
  413127:	83 0d 36 c7 2a 00 02 	orl    $0x2,0x2ac736(%rip)        # 6bf864 <main_arena+0x4>
  41312e:	4c 01 f8             	add    %r15,%rax
  413131:	41 0f 94 c3          	sete   %r11b
  413135:	48 85 d2             	test   %rdx,%rdx
  413138:	0f 85 6e fd ff ff    	jne    412eac <_int_malloc+0xc7c>
  41313e:	e9 e1 fd ff ff       	jmpq   412f24 <_int_malloc+0xcf4>
  413143:	b9 3f 48 49 00       	mov    $0x49483f,%ecx
  413148:	ba 42 0a 00 00       	mov    $0xa42,%edx
  41314d:	be c8 44 49 00       	mov    $0x4944c8,%esi
  413152:	bf b8 54 49 00       	mov    $0x4954b8,%edi
  413157:	e8 44 c5 ff ff       	callq  40f6a0 <__malloc_assert>
  41315c:	b9 3f 48 49 00       	mov    $0x49483f,%ecx
  413161:	ba 47 09 00 00       	mov    $0x947,%edx
  413166:	be c8 44 49 00       	mov    $0x4944c8,%esi
  41316b:	bf 38 53 49 00       	mov    $0x495338,%edi
  413170:	e8 2b c5 ff ff       	callq  40f6a0 <__malloc_assert>
  413175:	b9 3f 48 49 00       	mov    $0x49483f,%ecx
  41317a:	ba 44 09 00 00       	mov    $0x944,%edx
  41317f:	be c8 44 49 00       	mov    $0x4944c8,%esi
  413184:	bf 20 51 49 00       	mov    $0x495120,%edi
  413189:	e8 12 c5 ff ff       	callq  40f6a0 <__malloc_assert>
--
  41364e:	f0 0f b1 35 0a c2 2a 	lock cmpxchg %esi,0x2ac20a(%rip)        # 6bf860 <main_arena>
  413655:	00 
  413656:	0f 85 6b 31 00 00    	jne    4167c7 <_L_lock_10666>
  41365c:	eb 0d                	jmp    41366b <malloc_check+0x3b>
  41365e:	0f b1 35 fb c1 2a 00 	cmpxchg %esi,0x2ac1fb(%rip)        # 6bf860 <main_arena>
  413665:	0f 85 5c 31 00 00    	jne    4167c7 <_L_lock_10666>
  41366b:	e8 d0 cd ff ff       	callq  410440 <top_check>
  413670:	31 f6                	xor    %esi,%esi
  413672:	85 c0                	test   %eax,%eax
  413674:	78 11                	js     413687 <malloc_check+0x57>
  413676:	48 8d 73 01          	lea    0x1(%rbx),%rsi
  41367a:	bf 60 f8 6b 00       	mov    $0x6bf860,%edi
  41367f:	e8 ac eb ff ff       	callq  412230 <_int_malloc>
  413684:	48 89 c6             	mov    %rax,%rsi
  413687:	83 3d 4e f8 2a 00 00 	cmpl   $0x0,0x2af84e(%rip)        # 6c2edc <__libc_multiple_threads>
  41368e:	74 0f                	je     41369f <malloc_check+0x6f>
  413690:	f0 ff 0d c9 c1 2a 00 	lock decl 0x2ac1c9(%rip)        # 6bf860 <main_arena>
  413697:	0f 85 49 31 00 00    	jne    4167e6 <_L_unlock_10687>
  41369d:	eb 0c                	jmp    4136ab <malloc_check+0x7b>
  41369f:	ff 0d bb c1 2a 00    	decl   0x2ac1bb(%rip)        # 6bf860 <main_arena>
  4136a5:	0f 85 3b 31 00 00    	jne    4167e6 <_L_unlock_10687>
  4136ab:	48 85 f6             	test   %rsi,%rsi
  4136ae:	74 70                	je     413720 <malloc_check+0xf0>
  4136b0:	48 8b 46 f8          	mov    -0x8(%rsi),%rax
  4136b4:	48 8d 7e f0          	lea    -0x10(%rsi),%rdi
  4136b8:	48 89 c2             	mov    %rax,%rdx
  4136bb:	83 e0 02             	and    $0x2,%eax
  4136be:	48 83 e2 f8          	and    $0xfffffffffffffff8,%rdx
  4136c2:	48 83 f8 01          	cmp    $0x1,%rax
  4136c6:	48 19 c0             	sbb    %rax,%rax
  4136c9:	48 83 e0 f8          	and    $0xfffffffffffffff8,%rax
  4136cd:	48 83 c0 11          	add    $0x11,%rax
  4136d1:	48 29 c2             	sub    %rax,%rdx
  4136d4:	48 39 d3             	cmp    %rdx,%rbx
  4136d7:	73 36                	jae    41370f <malloc_check+0xdf>
  4136d9:	48 89 d0             	mov    %rdx,%rax
  4136dc:	48 29 d8             	sub    %rbx,%rax
  4136df:	48 3d ff 00 00 00    	cmp    $0xff,%rax
  4136e5:	77 18                	ja     4136ff <malloc_check+0xcf>
  4136e7:	eb 3f                	jmp    413728 <malloc_check+0xf8>
--
  4139bb:	f0 0f b1 35 9d be 2a 	lock cmpxchg %esi,0x2abe9d(%rip)        # 6bf860 <main_arena>
  4139c2:	00 
  4139c3:	0f 85 3c 2e 00 00    	jne    416805 <_L_lock_11118>
  4139c9:	eb 0d                	jmp    4139d8 <memalign_check+0x98>
  4139cb:	0f b1 35 8e be 2a 00 	cmpxchg %esi,0x2abe8e(%rip)        # 6bf860 <main_arena>
  4139d2:	0f 85 2d 2e 00 00    	jne    416805 <_L_lock_11118>
  4139d8:	e8 63 ca ff ff       	callq  410440 <top_check>
  4139dd:	45 31 c0             	xor    %r8d,%r8d
  4139e0:	85 c0                	test   %eax,%eax
  4139e2:	78 14                	js     4139f8 <memalign_check+0xb8>
  4139e4:	48 8d 53 01          	lea    0x1(%rbx),%rdx
  4139e8:	48 89 ee             	mov    %rbp,%rsi
  4139eb:	bf 60 f8 6b 00       	mov    $0x6bf860,%edi
  4139f0:	e8 5b fd ff ff       	callq  413750 <_int_memalign>
  4139f5:	49 89 c0             	mov    %rax,%r8
  4139f8:	83 3d dd f4 2a 00 00 	cmpl   $0x0,0x2af4dd(%rip)        # 6c2edc <__libc_multiple_threads>
  4139ff:	74 0f                	je     413a10 <memalign_check+0xd0>
  413a01:	f0 ff 0d 58 be 2a 00 	lock decl 0x2abe58(%rip)        # 6bf860 <main_arena>
  413a08:	0f 85 16 2e 00 00    	jne    416824 <_L_unlock_11141>
  413a0e:	eb 0c                	jmp    413a1c <memalign_check+0xdc>
  413a10:	ff 0d 4a be 2a 00    	decl   0x2abe4a(%rip)        # 6bf860 <main_arena>
  413a16:	0f 85 08 2e 00 00    	jne    416824 <_L_unlock_11141>
  413a1c:	4d 85 c0             	test   %r8,%r8
  413a1f:	74 70                	je     413a91 <memalign_check+0x151>
  413a21:	49 8b 40 f8          	mov    -0x8(%r8),%rax
  413a25:	49 8d 70 f0          	lea    -0x10(%r8),%rsi
  413a29:	48 89 c2             	mov    %rax,%rdx
  413a2c:	83 e0 02             	and    $0x2,%eax
  413a2f:	48 83 e2 f8          	and    $0xfffffffffffffff8,%rdx
  413a33:	48 83 f8 01          	cmp    $0x1,%rax
  413a37:	48 19 c0             	sbb    %rax,%rax
  413a3a:	48 83 e0 f8          	and    $0xfffffffffffffff8,%rax
  413a3e:	48 83 c0 11          	add    $0x11,%rax
  413a42:	48 29 c2             	sub    %rax,%rdx
  413a45:	48 39 d3             	cmp    %rdx,%rbx
  413a48:	73 36                	jae    413a80 <memalign_check+0x140>
  413a4a:	48 89 d0             	mov    %rdx,%rax
  413a4d:	48 29 d8             	sub    %rbx,%rax
  413a50:	48 3d ff 00 00 00    	cmp    $0xff,%rax
  413a56:	77 17                	ja     413a6f <memalign_check+0x12f>
  413a58:	eb 5e                	jmp    413ab8 <memalign_check+0x178>
--
  413f30:	f0 0f b1 35 28 b9 2a 	lock cmpxchg %esi,0x2ab928(%rip)        # 6bf860 <main_arena>
  413f37:	00 
  413f38:	0f 85 05 29 00 00    	jne    416843 <_L_lock_12032>
  413f3e:	eb 0d                	jmp    413f4d <realloc_check+0x5d>
  413f40:	0f b1 35 19 b9 2a 00 	cmpxchg %esi,0x2ab919(%rip)        # 6bf860 <main_arena>
  413f47:	0f 85 f6 28 00 00    	jne    416843 <_L_lock_12032>
  413f4d:	48 8d 74 24 10       	lea    0x10(%rsp),%rsi
  413f52:	48 89 ef             	mov    %rbp,%rdi
  413f55:	e8 c6 b4 ff ff       	callq  40f420 <mem2chunk_check>
  413f5a:	49 89 c4             	mov    %rax,%r12
  413f5d:	83 3d 78 ef 2a 00 00 	cmpl   $0x0,0x2aef78(%rip)        # 6c2edc <__libc_multiple_threads>
  413f64:	74 0f                	je     413f75 <realloc_check+0x85>
  413f66:	f0 ff 0d f3 b8 2a 00 	lock decl 0x2ab8f3(%rip)        # 6bf860 <main_arena>
  413f6d:	0f 85 ef 28 00 00    	jne    416862 <_L_unlock_12046>
  413f73:	eb 0c                	jmp    413f81 <realloc_check+0x91>
  413f75:	ff 0d e5 b8 2a 00    	decl   0x2ab8e5(%rip)        # 6bf860 <main_arena>
  413f7b:	0f 85 e1 28 00 00    	jne    416862 <_L_unlock_12046>
  413f81:	4d 85 e4             	test   %r12,%r12
  413f84:	0f 84 ea 02 00 00    	je     414274 <realloc_check+0x384>
  413f8a:	4d 8b 6c 24 08       	mov    0x8(%r12),%r13
  413f8f:	48 8d 53 01          	lea    0x1(%rbx),%rdx
  413f93:	49 83 e5 f8          	and    $0xfffffffffffffff8,%r13
  413f97:	48 83 fa bf          	cmp    $0xffffffffffffffbf,%rdx
  413f9b:	0f 87 5f 01 00 00    	ja     414100 <realloc_check+0x210>
  413fa1:	4c 8d 73 18          	lea    0x18(%rbx),%r14
  413fa5:	41 bf 20 00 00 00    	mov    $0x20,%r15d
  413fab:	be 01 00 00 00       	mov    $0x1,%esi
  413fb0:	4c 89 f0             	mov    %r14,%rax
  413fb3:	48 83 e0 f0          	and    $0xfffffffffffffff0,%rax
  413fb7:	49 83 fe 20          	cmp    $0x20,%r14
  413fbb:	4c 0f 43 f8          	cmovae %rax,%r15
  413fbf:	31 c0                	xor    %eax,%eax
  413fc1:	83 3d 14 ef 2a 00 00 	cmpl   $0x0,0x2aef14(%rip)        # 6c2edc <__libc_multiple_threads>
  413fc8:	74 10                	je     413fda <realloc_check+0xea>
  413fca:	f0 0f b1 35 8e b8 2a 	lock cmpxchg %esi,0x2ab88e(%rip)        # 6bf860 <main_arena>
  413fd1:	00 
  413fd2:	0f 85 a9 28 00 00    	jne    416881 <_L_lock_12074>
  413fd8:	eb 0d                	jmp    413fe7 <realloc_check+0xf7>
  413fda:	0f b1 35 7f b8 2a 00 	cmpxchg %esi,0x2ab87f(%rip)        # 6bf860 <main_arena>
  413fe1:	0f 85 9a 28 00 00    	jne    416881 <_L_lock_12074>
  413fe7:	41 f6 44 24 08 02    	testb  $0x2,0x8(%r12)
  413fed:	0f 85 e5 00 00 00    	jne    4140d8 <realloc_check+0x1e8>
  413ff3:	e8 48 c4 ff ff       	callq  410440 <top_check>
  413ff8:	85 c0                	test   %eax,%eax
  413ffa:	0f 88 20 01 00 00    	js     414120 <realloc_check+0x230>
  414000:	4c 89 f0             	mov    %r14,%rax
  414003:	b9 20 00 00 00       	mov    $0x20,%ecx
  414008:	4c 89 ea             	mov    %r13,%rdx
  41400b:	48 83 e0 f0          	and    $0xfffffffffffffff0,%rax
  41400f:	49 83 fe 20          	cmp    $0x20,%r14
  414013:	4c 89 e6             	mov    %r12,%rsi
  414016:	48 0f 43 c8          	cmovae %rax,%rcx
  41401a:	bf 60 f8 6b 00       	mov    $0x6bf860,%edi
  41401f:	e8 ec fa ff ff       	callq  413b10 <_int_realloc>
  414024:	48 89 c5             	mov    %rax,%rbp
  414027:	48 85 ed             	test   %rbp,%rbp
  41402a:	0f 84 f0 00 00 00    	je     414120 <realloc_check+0x230>
  414030:	83 3d a5 ee 2a 00 00 	cmpl   $0x0,0x2aeea5(%rip)        # 6c2edc <__libc_multiple_threads>
  414037:	74 0f                	je     414048 <realloc_check+0x158>
  414039:	f0 ff 0d 20 b8 2a 00 	lock decl 0x2ab820(%rip)        # 6bf860 <main_arena>
  414040:	0f 85 5a 28 00 00    	jne    4168a0 <_L_unlock_12114>
  414046:	eb 0c                	jmp    414054 <realloc_check+0x164>
  414048:	ff 0d 12 b8 2a 00    	decl   0x2ab812(%rip)        # 6bf860 <main_arena>
  41404e:	0f 85 4c 28 00 00    	jne    4168a0 <_L_unlock_12114>
  414054:	48 85 ed             	test   %rbp,%rbp
  414057:	74 67                	je     4140c0 <realloc_check+0x1d0>
  414059:	48 8b 45 f8          	mov    -0x8(%rbp),%rax
  41405d:	48 8d 4d f0          	lea    -0x10(%rbp),%rcx
  414061:	48 89 c2             	mov    %rax,%rdx
  414064:	83 e0 02             	and    $0x2,%eax
  414067:	48 83 e2 f8          	and    $0xfffffffffffffff8,%rdx
  41406b:	48 83 f8 01          	cmp    $0x1,%rax
  41406f:	48 19 c0             	sbb    %rax,%rax
  414072:	48 83 e0 f8          	and    $0xfffffffffffffff8,%rax
  414076:	48 83 c0 11          	add    $0x11,%rax
  41407a:	48 29 c2             	sub    %rax,%rdx
  41407d:	48 39 d3             	cmp    %rdx,%rbx
  414080:	72 17                	jb     414099 <realloc_check+0x1a9>
  414082:	eb 2b                	jmp    4140af <realloc_check+0x1bf>
  414084:	0f 1f 40 00          	nopl   0x0(%rax)
  414088:	c6 44 15 00 ff       	movb   $0xff,0x0(%rbp,%rdx,1)
  41408d:	48 81 ea ff 00 00 00 	sub    $0xff,%rdx
  414094:	48 39 d3             	cmp    %rdx,%rbx
--
  4145f7:	f0 0f b1 35 61 b2 2a 	lock cmpxchg %esi,0x2ab261(%rip)        # 6bf860 <main_arena>
  4145fe:	00 
  4145ff:	0f 85 49 23 00 00    	jne    41694e <_L_lock_13025>
  414605:	eb 0d                	jmp    414614 <__malloc_get_state+0x44>
  414607:	0f b1 35 52 b2 2a 00 	cmpxchg %esi,0x2ab252(%rip)        # 6bf860 <main_arena>
  41460e:	0f 85 3a 23 00 00    	jne    41694e <_L_lock_13025>
  414614:	bf 60 f8 6b 00       	mov    $0x6bf860,%edi
  414619:	e8 32 c0 ff ff       	callq  410650 <malloc_consolidate>
  41461e:	48 8b 05 93 b2 2a 00 	mov    0x2ab293(%rip),%rax        # 6bf8b8 <main_arena+0x58>
  414625:	48 c7 03 41 45 4c 44 	movq   $0x444c4541,(%rbx)
  41462c:	ba b8 f8 6b 00       	mov    $0x6bf8b8,%edx
  414631:	48 c7 43 08 04 00 00 	movq   $0x4,0x8(%rbx)
  414638:	00 
  414639:	48 c7 43 10 00 00 00 	movq   $0x0,0x10(%rbx)
  414640:	00 
  414641:	48 8d 4b 38          	lea    0x38(%rbx),%rcx
  414645:	48 c7 43 18 00 00 00 	movq   $0x0,0x18(%rbx)
  41464c:	00 
  41464d:	48 c7 43 28 00 00 00 	movq   $0x0,0x28(%rbx)
  414654:	00 
  414655:	48 89 43 20          	mov    %rax,0x20(%rbx)
  414659:	eb 21                	jmp    41467c <__malloc_get_state+0xac>
  41465b:	0f 1f 44 00 00       	nopl   0x0(%rax,%rax,1)
  414660:	48 89 71 f8          	mov    %rsi,-0x8(%rcx)
  414664:	48 8b 72 18          	mov    0x18(%rdx),%rsi
  414668:	48 89 31             	mov    %rsi,(%rcx)
  41466b:	48 83 c2 10          	add    $0x10,%rdx
  41466f:	48 83 c1 10          	add    $0x10,%rcx
  414673:	48 81 fa a8 00 6c 00 	cmp    $0x6c00a8,%rdx
--
  4146ae:	48 8b 05 23 ba 2a 00 	mov    0x2aba23(%rip),%rax        # 6c00d8 <main_arena+0x878>
  4146b5:	89 83 28 08 00 00    	mov    %eax,0x828(%rbx)
  4146bb:	48 8b 05 3e b1 2a 00 	mov    0x2ab13e(%rip),%rax        # 6bf800 <mp_>
  4146c2:	48 89 83 30 08 00 00 	mov    %rax,0x830(%rbx)
  4146c9:	48 8b 05 38 b1 2a 00 	mov    0x2ab138(%rip),%rax        # 6bf808 <mp_+0x8>
  4146d0:	48 89 83 38 08 00 00 	mov    %rax,0x838(%rbx)
  4146d7:	8b 05 4f b1 2a 00    	mov    0x2ab14f(%rip),%eax        # 6bf82c <mp_+0x2c>
  4146dd:	89 83 40 08 00 00    	mov    %eax,0x840(%rbx)
  4146e3:	48 8b 05 26 b1 2a 00 	mov    0x2ab126(%rip),%rax        # 6bf810 <mp_+0x10>
  4146ea:	48 89 83 48 08 00 00 	mov    %rax,0x848(%rbx)
  4146f1:	8b 05 b9 b0 2a 00    	mov    0x2ab0b9(%rip),%eax        # 6bf7b0 <check_action>
  4146f7:	89 83 50 08 00 00    	mov    %eax,0x850(%rbx)
  4146fd:	48 8b 05 dc b9 2a 00 	mov    0x2ab9dc(%rip),%rax        # 6c00e0 <main_arena+0x880>
  414704:	48 c7 83 60 08 00 00 	movq   $0x0,0x860(%rbx)
  41470b:	00 00 00 00 
  41470f:	48 89 83 58 08 00 00 	mov    %rax,0x858(%rbx)
  414716:	8b 05 0c b1 2a 00    	mov    0x2ab10c(%rip),%eax        # 6bf828 <mp_+0x28>
  41471c:	89 83 68 08 00 00    	mov    %eax,0x868(%rbx)
  414722:	8b 05 08 b1 2a 00    	mov    0x2ab108(%rip),%eax        # 6bf830 <mp_+0x30>
  414728:	89 83 6c 08 00 00    	mov    %eax,0x86c(%rbx)
  41472e:	48 8b 05 03 b1 2a 00 	mov    0x2ab103(%rip),%rax        # 6bf838 <mp_+0x38>
  414735:	48 89 83 70 08 00 00 	mov    %rax,0x870(%rbx)
  41473c:	48 8b 05 fd b0 2a 00 	mov    0x2ab0fd(%rip),%rax        # 6bf840 <mp_+0x40>
  414743:	48 89 83 78 08 00 00 	mov    %rax,0x878(%rbx)
  41474a:	8b 05 50 d0 2a 00    	mov    0x2ad050(%rip),%eax        # 6c17a0 <using_malloc_checking>
  414750:	89 83 80 08 00 00    	mov    %eax,0x880(%rbx)
  414756:	48 8b 05 23 d1 2a 00 	mov    0x2ad123(%rip),%rax        # 6c1880 <global_max_fast>
  41475d:	48 89 83 88 08 00 00 	mov    %rax,0x888(%rbx)
  414764:	48 8b 05 ad b0 2a 00 	mov    0x2ab0ad(%rip),%rax        # 6bf818 <mp_+0x18>
  41476b:	48 89 83 90 08 00 00 	mov    %rax,0x890(%rbx)
  414772:	48 8b 05 a7 b0 2a 00 	mov    0x2ab0a7(%rip),%rax        # 6bf820 <mp_+0x20>
  414779:	48 89 83 98 08 00 00 	mov    %rax,0x898(%rbx)
  414780:	48 8b 05 19 b0 2a 00 	mov    0x2ab019(%rip),%rax        # 6bf7a0 <narenas>
--
  414797:	f0 ff 0d c2 b0 2a 00 	lock decl 0x2ab0c2(%rip)        # 6bf860 <main_arena>
  41479e:	0f 85 c9 21 00 00    	jne    41696d <_L_unlock_13111>
  4147a4:	eb 0c                	jmp    4147b2 <__malloc_get_state+0x1e2>
  4147a6:	ff 0d b4 b0 2a 00    	decl   0x2ab0b4(%rip)        # 6bf860 <main_arena>
  4147ac:	0f 85 bb 21 00 00    	jne    41696d <_L_unlock_13111>
  4147b2:	48 89 d8             	mov    %rbx,%rax
  4147b5:	5b                   	pop    %rbx
  4147b6:	c3                   	retq   
  4147b7:	31 c0                	xor    %eax,%eax
  4147b9:	5b                   	pop    %rbx
  4147ba:	c3                   	retq   
  4147bb:	0f 1f 44 00 00       	nopl   0x0(%rax,%rax,1)

00000000004147c0 <_mid_memalign>:
  4147c0:	41 54                	push   %r12
  4147c2:	48 8b 05 f7 af 2a 00 	mov    0x2aaff7(%rip),%rax        # 6bf7c0 <__memalign_hook>
  4147c9:	49 89 f4             	mov    %rsi,%r12
  4147cc:	55                   	push   %rbp
  4147cd:	48 85 c0             	test   %rax,%rax
  4147d0:	53                   	push   %rbx
  4147d1:	48 89 fb             	mov    %rdi,%rbx
  4147d4:	0f 85 d8 01 00 00    	jne    4149b2 <_mid_memalign+0x1f2>
  4147da:	48 83 ff 10          	cmp    $0x10,%rdi
  4147de:	0f 86 04 01 00 00    	jbe    4148e8 <_mid_memalign+0x128>
--
  4151d9:	f0 0f b1 35 7f a6 2a 	lock cmpxchg %esi,0x2aa67f(%rip)        # 6bf860 <main_arena>
  4151e0:	00 
  4151e1:	0f 85 80 18 00 00    	jne    416a67 <_L_lock_14713>
  4151e7:	eb 0d                	jmp    4151f6 <__libc_mallopt+0x46>
  4151e9:	0f b1 35 70 a6 2a 00 	cmpxchg %esi,0x2aa670(%rip)        # 6bf860 <main_arena>
  4151f0:	0f 85 71 18 00 00    	jne    416a67 <_L_lock_14713>
  4151f6:	bf 60 f8 6b 00       	mov    $0x6bf860,%edi
  4151fb:	e8 50 b4 ff ff       	callq  410650 <malloc_consolidate>
  415200:	8d 7d 08             	lea    0x8(%rbp),%edi
  415203:	83 ff 09             	cmp    $0x9,%edi
  415206:	0f 87 34 01 00 00    	ja     415340 <__libc_mallopt+0x190>
  41520c:	ff 24 fd f0 5c 49 00 	jmpq   *0x495cf0(,%rdi,8)
  415213:	0f 1f 44 00 00       	nopl   0x0(%rax,%rax,1)
  415218:	31 d2                	xor    %edx,%edx
  41521a:	81 fb a0 00 00 00    	cmp    $0xa0,%ebx
  415220:	77 3e                	ja     415260 <__libc_mallopt+0xb0>
  415222:	85 db                	test   %ebx,%ebx
  415224:	b8 10 00 00 00       	mov    $0x10,%eax
  415229:	74 0b                	je     415236 <__libc_mallopt+0x86>
  41522b:	48 63 c3             	movslq %ebx,%rax
  41522e:	48 83 c0 08          	add    $0x8,%rax
  415232:	48 83 e0 f0          	and    $0xfffffffffffffff0,%rax
  415236:	48 89 05 43 c6 2a 00 	mov    %rax,0x2ac643(%rip)        # 6c1880 <global_max_fast>
  41523d:	ba 01 00 00 00       	mov    $0x1,%edx
  415242:	eb 1c                	jmp    415260 <__libc_mallopt+0xb0>
--
  415269:	f0 ff 0d f0 a5 2a 00 	lock decl 0x2aa5f0(%rip)        # 6bf860 <main_arena>
  415270:	0f 85 10 18 00 00    	jne    416a86 <_L_unlock_14762>
  415276:	eb 0c                	jmp    415284 <__libc_mallopt+0xd4>
  415278:	ff 0d e2 a5 2a 00    	decl   0x2aa5e2(%rip)        # 6bf860 <main_arena>
  41527e:	0f 85 02 18 00 00    	jne    416a86 <_L_unlock_14762>
  415284:	48 83 c4 08          	add    $0x8,%rsp
  415288:	89 d0                	mov    %edx,%eax
  41528a:	5b                   	pop    %rbx
  41528b:	5d                   	pop    %rbp
  41528c:	c3                   	retq   
  41528d:	0f 1f 00             	nopl   (%rax)
  415290:	85 db                	test   %ebx,%ebx
  415292:	ba 01 00 00 00       	mov    $0x1,%edx
  415297:	7e c7                	jle    415260 <__libc_mallopt+0xb0>
  415299:	48 89 1d 78 a5 2a 00 	mov    %rbx,0x2aa578(%rip)        # 6bf818 <mp_+0x18>
  4152a0:	eb be                	jmp    415260 <__libc_mallopt+0xb0>
  4152a2:	66 0f 1f 44 00 00    	nopw   0x0(%rax,%rax,1)
  4152a8:	89 1d 7e a5 2a 00    	mov    %ebx,0x2aa57e(%rip)        # 6bf82c <mp_+0x2c>
  4152ae:	c7 05 7c a5 2a 00 01 	movl   $0x1,0x2aa57c(%rip)        # 6bf834 <mp_+0x34>
  4152b5:	00 00 00 
  4152b8:	ba 01 00 00 00       	mov    $0x1,%edx
  4152bd:	eb a1                	jmp    415260 <__libc_mallopt+0xb0>
  4152bf:	90                   	nop
  4152c0:	31 d2                	xor    %edx,%edx
--
  41586e:	f0 0f b1 35 ea 9f 2a 	lock cmpxchg %esi,0x2a9fea(%rip)        # 6bf860 <main_arena>
  415875:	00 
  415876:	0f 85 29 12 00 00    	jne    416aa5 <_L_lock_15616>
  41587c:	eb 0d                	jmp    41588b <__malloc_set_state+0x6b>
  41587e:	0f b1 35 db 9f 2a 00 	cmpxchg %esi,0x2a9fdb(%rip)        # 6bf860 <main_arena>
  415885:	0f 85 1a 12 00 00    	jne    416aa5 <_L_lock_15616>
  41588b:	64 83 3c 25 18 00 00 	cmpl   $0x0,%fs:0x18
  415892:	00 00 
  415894:	74 01                	je     415897 <__malloc_set_state+0x77>
  415896:	f0 83 0d c6 9f 2a 00 	lock orl $0x1,0x2a9fc6(%rip)        # 6bf864 <main_arena+0x4>
  41589d:	01 
  41589e:	48 83 7b 08 03       	cmpq   $0x3,0x8(%rbx)
  4158a3:	0f 8f 02 01 00 00    	jg     4159ab <__malloc_set_state+0x18b>
  4158a9:	48 c7 05 cc bf 2a 00 	movq   $0x40,0x2abfcc(%rip)        # 6c1880 <global_max_fast>
  4158b0:	40 00 00 00 
  4158b4:	ba 68 f8 6b 00       	mov    $0x6bf868,%edx
  4158b9:	31 c0                	xor    %eax,%eax
  4158bb:	b9 0a 00 00 00       	mov    $0xa,%ecx
  4158c0:	48 89 d7             	mov    %rdx,%rdi
  4158c3:	c7 05 eb a7 2a 00 00 	movl   $0x0,0x2aa7eb(%rip)        # 6c00b8 <main_arena+0x858>
  4158ca:	00 00 00 
  4158cd:	c7 05 e5 a7 2a 00 00 	movl   $0x0,0x2aa7e5(%rip)        # 6c00bc <main_arena+0x85c>
  4158d4:	00 00 00 
  4158d7:	f3 48 ab             	rep stos %rax,%es:(%rdi)
  4158da:	c7 05 dc a7 2a 00 00 	movl   $0x0,0x2aa7dc(%rip)        # 6c00c0 <main_arena+0x860>
  4158e1:	00 00 00 
  4158e4:	c7 05 d6 a7 2a 00 00 	movl   $0x0,0x2aa7d6(%rip)        # 6c00c4 <main_arena+0x864>
  4158eb:	00 00 00 
  4158ee:	48 8d 53 38          	lea    0x38(%rbx),%rdx
  4158f2:	41 ba 01 00 00 00    	mov    $0x1,%r10d
  4158f8:	48 8b 43 20          	mov    0x20(%rbx),%rax
  4158fc:	48 c7 05 b9 9f 2a 00 	movq   $0x0,0x2a9fb9(%rip)        # 6bf8c0 <main_arena+0x60>
  415903:	00 00 00 00 
  415907:	48 89 07             	mov    %rax,(%rdi)
  41590a:	b1 01                	mov    $0x1,%cl
  41590c:	b8 b8 f8 6b 00       	mov    $0x6bf8b8,%eax
  415911:	eb 52                	jmp    415965 <__malloc_set_state+0x145>
  415913:	0f 1f 44 00 00       	nopl   0x0(%rax,%rax,1)
  415918:	48 83 f9 3f          	cmp    $0x3f,%rcx
  41591c:	0f 87 ae 00 00 00    	ja     4159d0 <__malloc_set_state+0x1b0>
  415922:	48 8b 3a             	mov    (%rdx),%rdi
  415925:	48 89 78 18          	mov    %rdi,0x18(%rax)
  415929:	48 89 70 10          	mov    %rsi,0x10(%rax)
  41592d:	44 89 d7             	mov    %r10d,%edi
  415930:	48 89 46 18          	mov    %rax,0x18(%rsi)
  415934:	48 8b 70 18          	mov    0x18(%rax),%rsi
  415938:	d3 e7                	shl    %cl,%edi
  41593a:	48 89 46 10          	mov    %rax,0x10(%rsi)
  41593e:	48 89 ce             	mov    %rcx,%rsi
  415941:	48 c1 ee 05          	shr    $0x5,%rsi
  415945:	09 3c b5 b8 00 6c 00 	or     %edi,0x6c00b8(,%rsi,4)
  41594c:	48 83 c1 01          	add    $0x1,%rcx
--
  415984:	4c 8b 0d 3d 9f 2a 00 	mov    0x2a9f3d(%rip),%r9        # 6bf8c8 <main_arena+0x68>
  41598b:	48 c7 46 18 b8 f8 6b 	movq   $0x6bf8b8,0x18(%rsi)
  415992:	00 
  415993:	4d 89 48 10          	mov    %r9,0x10(%r8)
  415997:	4c 8b 0d 2a 9f 2a 00 	mov    0x2a9f2a(%rip),%r9        # 6bf8c8 <main_arena+0x68>
  41599e:	4d 89 41 18          	mov    %r8,0x18(%r9)
  4159a2:	48 89 35 1f 9f 2a 00 	mov    %rsi,0x2a9f1f(%rip)        # 6bf8c8 <main_arena+0x68>
  4159a9:	eb a1                	jmp    41594c <__malloc_set_state+0x12c>
  4159ab:	48 8b 93 88 08 00 00 	mov    0x888(%rbx),%rdx
  4159b2:	b8 10 00 00 00       	mov    $0x10,%eax
  4159b7:	48 85 d2             	test   %rdx,%rdx
  4159ba:	74 08                	je     4159c4 <__malloc_set_state+0x1a4>
  4159bc:	48 8d 42 08          	lea    0x8(%rdx),%rax
  4159c0:	48 83 e0 f0          	and    $0xfffffffffffffff0,%rax
  4159c4:	48 89 05 b5 be 2a 00 	mov    %rax,0x2abeb5(%rip)        # 6c1880 <global_max_fast>
  4159cb:	e9 e4 fe ff ff       	jmpq   4158b4 <__malloc_set_state+0x94>
  4159d0:	48 8b 7e 08          	mov    0x8(%rsi),%rdi
  4159d4:	49 89 f8             	mov    %rdi,%r8
  4159d7:	49 c1 e8 06          	shr    $0x6,%r8
  4159db:	49 83 f8 30          	cmp    $0x30,%r8
  4159df:	4d 8d 48 30          	lea    0x30(%r8),%r9
  4159e3:	76 11                	jbe    4159f6 <__malloc_set_state+0x1d6>
  4159e5:	49 89 f9             	mov    %rdi,%r9
  4159e8:	49 c1 e9 09          	shr    $0x9,%r9
  4159ec:	49 83 f9 14          	cmp    $0x14,%r9
  4159f0:	77 5e                	ja     415a50 <__malloc_set_state+0x230>
  4159f2:	49 83 c1 5b          	add    $0x5b,%r9
--
  415aea:	48 8b 05 d7 9d 2a 00 	mov    0x2a9dd7(%rip),%rax        # 6bf8c8 <main_arena+0x68>
  415af1:	48 3d b8 f8 6b 00    	cmp    $0x6bf8b8,%rax
  415af7:	74 34                	je     415b2d <__malloc_set_state+0x30d>
  415af9:	0f 1f 80 00 00 00 00 	nopl   0x0(%rax)
  415b00:	48 8b 50 08          	mov    0x8(%rax),%rdx
  415b04:	48 83 e2 f8          	and    $0xfffffffffffffff8,%rdx
  415b08:	48 81 fa ff 03 00 00 	cmp    $0x3ff,%rdx
  415b0f:	76 10                	jbe    415b21 <__malloc_set_state+0x301>
  415b11:	48 c7 40 20 00 00 00 	movq   $0x0,0x20(%rax)
  415b18:	00 
  415b19:	48 c7 40 28 00 00 00 	movq   $0x0,0x28(%rax)
  415b20:	00 
  415b21:	48 8b 40 10          	mov    0x10(%rax),%rax
  415b25:	48 3d b8 f8 6b 00    	cmp    $0x6bf8b8,%rax
  415b2b:	75 d3                	jne    415b00 <__malloc_set_state+0x2e0>
  415b2d:	48 8b 83 20 08 00 00 	mov    0x820(%rbx),%rax
  415b34:	48 85 c9             	test   %rcx,%rcx
  415b37:	48 89 05 12 9d 2a 00 	mov    %rax,0x2a9d12(%rip)        # 6bf850 <mp_+0x50>
  415b3e:	48 63 83 28 08 00 00 	movslq 0x828(%rbx),%rax
  415b45:	48 89 05 8c a5 2a 00 	mov    %rax,0x2aa58c(%rip)        # 6c00d8 <main_arena+0x878>
  415b4c:	48 8b 83 30 08 00 00 	mov    0x830(%rbx),%rax
  415b53:	48 89 05 a6 9c 2a 00 	mov    %rax,0x2a9ca6(%rip)        # 6bf800 <mp_>
  415b5a:	48 8b 83 38 08 00 00 	mov    0x838(%rbx),%rax
  415b61:	48 89 05 a0 9c 2a 00 	mov    %rax,0x2a9ca0(%rip)        # 6bf808 <mp_+0x8>
  415b68:	8b 83 40 08 00 00    	mov    0x840(%rbx),%eax
  415b6e:	89 05 b8 9c 2a 00    	mov    %eax,0x2a9cb8(%rip)        # 6bf82c <mp_+0x2c>
  415b74:	48 8b 83 48 08 00 00 	mov    0x848(%rbx),%rax
  415b7b:	48 89 05 8e 9c 2a 00 	mov    %rax,0x2a9c8e(%rip)        # 6bf810 <mp_+0x10>
  415b82:	8b 83 50 08 00 00    	mov    0x850(%rbx),%eax
  415b88:	89 05 22 9c 2a 00    	mov    %eax,0x2a9c22(%rip)        # 6bf7b0 <check_action>
  415b8e:	48 8b 83 58 08 00 00 	mov    0x858(%rbx),%rax
  415b95:	48 89 05 44 a5 2a 00 	mov    %rax,0x2aa544(%rip)        # 6c00e0 <main_arena+0x880>
  415b9c:	8b 83 68 08 00 00    	mov    0x868(%rbx),%eax
  415ba2:	89 05 80 9c 2a 00    	mov    %eax,0x2a9c80(%rip)        # 6bf828 <mp_+0x28>
  415ba8:	8b 83 6c 08 00 00    	mov    0x86c(%rbx),%eax
  415bae:	89 05 7c 9c 2a 00    	mov    %eax,0x2a9c7c(%rip)        # 6bf830 <mp_+0x30>
  415bb4:	48 8b 83 70 08 00 00 	mov    0x870(%rbx),%rax
  415bbb:	48 89 05 76 9c 2a 00 	mov    %rax,0x2a9c76(%rip)        # 6bf838 <mp_+0x38>
  415bc2:	48 8b 83 78 08 00 00 	mov    0x878(%rbx),%rax
  415bc9:	48 89 05 70 9c 2a 00 	mov    %rax,0x2a9c70(%rip)        # 6bf840 <mp_+0x40>
  415bd0:	7e 4c                	jle    415c1e <__malloc_set_state+0x3fe>
  415bd2:	8b bb 80 08 00 00    	mov    0x880(%rbx),%edi
  415bd8:	85 ff                	test   %edi,%edi
  415bda:	0f 85 9c 00 00 00    	jne    415c7c <__malloc_set_state+0x45c>
  415be0:	8b 05 ba bb 2a 00    	mov    0x2abbba(%rip),%eax        # 6c17a0 <using_malloc_checking>
  415be6:	85 c0                	test   %eax,%eax
  415be8:	0f 85 e5 00 00 00    	jne    415cd3 <__malloc_set_state+0x4b3>
  415bee:	48 83 f9 03          	cmp    $0x3,%rcx
  415bf2:	7e 2a                	jle    415c1e <__malloc_set_state+0x3fe>
  415bf4:	48 8b 83 90 08 00 00 	mov    0x890(%rbx),%rax
  415bfb:	48 89 05 16 9c 2a 00 	mov    %rax,0x2a9c16(%rip)        # 6bf818 <mp_+0x18>
  415c02:	48 8b 83 98 08 00 00 	mov    0x898(%rbx),%rax
--
  415c27:	f0 ff 0d 32 9c 2a 00 	lock decl 0x2a9c32(%rip)        # 6bf860 <main_arena>
  415c2e:	0f 85 90 0e 00 00    	jne    416ac4 <_L_unlock_15943>
  415c34:	eb 0c                	jmp    415c42 <__malloc_set_state+0x422>
  415c36:	ff 0d 24 9c 2a 00    	decl   0x2a9c24(%rip)        # 6bf860 <main_arena>
  415c3c:	0f 85 82 0e 00 00    	jne    416ac4 <_L_unlock_15943>
  415c42:	31 c0                	xor    %eax,%eax
  415c44:	48 83 c4 08          	add    $0x8,%rsp
  415c48:	5b                   	pop    %rbx
  415c49:	5d                   	pop    %rbp
  415c4a:	c3                   	retq   
  415c4b:	4d 89 c3             	mov    %r8,%r11
  415c4e:	49 c1 eb 0f          	shr    $0xf,%r11
  415c52:	49 83 fb 04          	cmp    $0x4,%r11
  415c56:	77 09                	ja     415c61 <__malloc_set_state+0x441>
  415c58:	49 83 c3 77          	add    $0x77,%r11
  415c5c:	e9 b6 fd ff ff       	jmpq   415a17 <__malloc_set_state+0x1f7>
  415c61:	49 c1 e8 12          	shr    $0x12,%r8
  415c65:	41 bb 7e 00 00 00    	mov    $0x7e,%r11d
  415c6b:	49 8d 68 7c          	lea    0x7c(%r8),%rbp
  415c6f:	49 83 f8 02          	cmp    $0x2,%r8
  415c73:	4c 0f 46 dd          	cmovbe %rbp,%r11
  415c77:	e9 9b fd ff ff       	jmpq   415a17 <__malloc_set_state+0x1f7>
  415c7c:	8b 35 1e bb 2a 00    	mov    0x2abb1e(%rip),%esi        # 6c17a0 <using_malloc_checking>
  415c82:	85 f6                	test   %esi,%esi
--
  416681:	48 8d 3d d8 91 2a 00 	lea    0x2a91d8(%rip),%rdi        # 6bf860 <main_arena>
  416688:	48 81 ec 80 00 00 00 	sub    $0x80,%rsp
  41668f:	e8 dc 06 02 00       	callq  436d70 <__lll_lock_wait_private>
  416694:	48 81 c4 80 00 00 00 	add    $0x80,%rsp
  41669b:	e9 58 9d ff ff       	jmpq   4103f8 <arena_get_retry+0x58>

00000000004166a0 <_L_unlock_2407>:
  4166a0:	48 8d 3d b9 91 2a 00 	lea    0x2a91b9(%rip),%rdi        # 6bf860 <main_arena>
  4166a7:	48 81 ec 80 00 00 00 	sub    $0x80,%rsp
  4166ae:	e8 ed 06 02 00       	callq  436da0 <__lll_unlock_wake_private>
  4166b3:	48 81 c4 80 00 00 00 	add    $0x80,%rsp
  4166ba:	e9 65 9d ff ff       	jmpq   410424 <arena_get_retry+0x84>

00000000004166bf <_L_lock_4597>:
  4166bf:	49 8d 3c 24          	lea    (%r12),%rdi
  4166c3:	48 81 ec 80 00 00 00 	sub    $0x80,%rsp
  4166ca:	e8 a1 06 02 00       	callq  436d70 <__lll_lock_wait_private>
  4166cf:	48 81 c4 80 00 00 00 	add    $0x80,%rsp
  4166d6:	e9 50 ab ff ff       	jmpq   41122b <_int_free+0x4bb>

00000000004166db <_L_unlock_4749>:
  4166db:	49 8d 3c 24          	lea    (%r12),%rdi
  4166df:	48 81 ec 80 00 00 00 	sub    $0x80,%rsp
  4166e6:	e8 b5 06 02 00       	callq  436da0 <__lll_unlock_wake_private>
  4166eb:	48 81 c4 80 00 00 00 	add    $0x80,%rsp
  4166f2:	e9 19 ac ff ff       	jmpq   411310 <_int_free+0x5a0>

00000000004166f7 <_L_unlock_5818>:
--
  41674b:	48 8d 3d 0e 91 2a 00 	lea    0x2a910e(%rip),%rdi        # 6bf860 <main_arena>
  416752:	48 81 ec 80 00 00 00 	sub    $0x80,%rsp
  416759:	e8 12 06 02 00       	callq  436d70 <__lll_lock_wait_private>
  41675e:	48 81 c4 80 00 00 00 	add    $0x80,%rsp
  416765:	e9 0b b3 ff ff       	jmpq   411a75 <free_check+0x45>

000000000041676a <_L_unlock_6500>:
  41676a:	48 8d 3d ef 90 2a 00 	lea    0x2a90ef(%rip),%rdi        # 6bf860 <main_arena>
  416771:	48 81 ec 80 00 00 00 	sub    $0x80,%rsp
  416778:	e8 23 06 02 00       	callq  436da0 <__lll_unlock_wake_private>
  41677d:	48 81 c4 80 00 00 00 	add    $0x80,%rsp
  416784:	e9 1b b5 ff ff       	jmpq   411ca4 <free_check+0x274>

0000000000416789 <_L_unlock_6539>:
  416789:	48 8d 3d d0 90 2a 00 	lea    0x2a90d0(%rip),%rdi        # 6bf860 <main_arena>
  416790:	48 81 ec 80 00 00 00 	sub    $0x80,%rsp
  416797:	e8 04 06 02 00       	callq  436da0 <__lll_unlock_wake_private>
  41679c:	48 81 c4 80 00 00 00 	add    $0x80,%rsp
  4167a3:	e9 34 b5 ff ff       	jmpq   411cdc <free_check+0x2ac>

00000000004167a8 <_L_unlock_6811>:
  4167a8:	48 8d 3d b1 90 2a 00 	lea    0x2a90b1(%rip),%rdi        # 6bf860 <main_arena>
  4167af:	48 81 ec 80 00 00 00 	sub    $0x80,%rsp
  4167b6:	e8 e5 05 02 00       	callq  436da0 <__lll_unlock_wake_private>
  4167bb:	48 81 c4 80 00 00 00 	add    $0x80,%rsp
  4167c2:	e9 d8 b6 ff ff       	jmpq   411e9f <free_check+0x46f>

00000000004167c7 <_L_lock_10666>:
  4167c7:	48 8d 3d 92 90 2a 00 	lea    0x2a9092(%rip),%rdi        # 6bf860 <main_arena>
  4167ce:	48 81 ec 80 00 00 00 	sub    $0x80,%rsp
  4167d5:	e8 96 05 02 00       	callq  436d70 <__lll_lock_wait_private>
  4167da:	48 81 c4 80 00 00 00 	add    $0x80,%rsp
  4167e1:	e9 85 ce ff ff       	jmpq   41366b <malloc_check+0x3b>

00000000004167e6 <_L_unlock_10687>:
  4167e6:	48 8d 3d 73 90 2a 00 	lea    0x2a9073(%rip),%rdi        # 6bf860 <main_arena>
  4167ed:	48 81 ec 80 00 00 00 	sub    $0x80,%rsp
  4167f4:	e8 a7 05 02 00       	callq  436da0 <__lll_unlock_wake_private>
  4167f9:	48 81 c4 80 00 00 00 	add    $0x80,%rsp
  416800:	e9 a6 ce ff ff       	jmpq   4136ab <malloc_check+0x7b>

0000000000416805 <_L_lock_11118>:
  416805:	48 8d 3d 54 90 2a 00 	lea    0x2a9054(%rip),%rdi        # 6bf860 <main_arena>
  41680c:	48 81 ec 80 00 00 00 	sub    $0x80,%rsp
  416813:	e8 58 05 02 00       	callq  436d70 <__lll_lock_wait_private>
  416818:	48 81 c4 80 00 00 00 	add    $0x80,%rsp
  41681f:	e9 b4 d1 ff ff       	jmpq   4139d8 <memalign_check+0x98>

0000000000416824 <_L_unlock_11141>:
  416824:	48 8d 3d 35 90 2a 00 	lea    0x2a9035(%rip),%rdi        # 6bf860 <main_arena>
  41682b:	48 81 ec 80 00 00 00 	sub    $0x80,%rsp
  416832:	e8 69 05 02 00       	callq  436da0 <__lll_unlock_wake_private>
  416837:	48 81 c4 80 00 00 00 	add    $0x80,%rsp
  41683e:	e9 d9 d1 ff ff       	jmpq   413a1c <memalign_check+0xdc>

0000000000416843 <_L_lock_12032>:
  416843:	48 8d 3d 16 90 2a 00 	lea    0x2a9016(%rip),%rdi        # 6bf860 <main_arena>
  41684a:	48 81 ec 80 00 00 00 	sub    $0x80,%rsp
  416851:	e8 1a 05 02 00       	callq  436d70 <__lll_lock_wait_private>
  416856:	48 81 c4 80 00 00 00 	add    $0x80,%rsp
  41685d:	e9 eb d6 ff ff       	jmpq   413f4d <realloc_check+0x5d>

0000000000416862 <_L_unlock_12046>:
  416862:	48 8d 3d f7 8f 2a 00 	lea    0x2a8ff7(%rip),%rdi        # 6bf860 <main_arena>
  416869:	48 81 ec 80 00 00 00 	sub    $0x80,%rsp
  416870:	e8 2b 05 02 00       	callq  436da0 <__lll_unlock_wake_private>
  416875:	48 81 c4 80 00 00 00 	add    $0x80,%rsp
  41687c:	e9 00 d7 ff ff       	jmpq   413f81 <realloc_check+0x91>

0000000000416881 <_L_lock_12074>:
  416881:	48 8d 3d d8 8f 2a 00 	lea    0x2a8fd8(%rip),%rdi        # 6bf860 <main_arena>
  416888:	48 81 ec 80 00 00 00 	sub    $0x80,%rsp
  41688f:	e8 dc 04 02 00       	callq  436d70 <__lll_lock_wait_private>
  416894:	48 81 c4 80 00 00 00 	add    $0x80,%rsp
  41689b:	e9 47 d7 ff ff       	jmpq   413fe7 <realloc_check+0xf7>

00000000004168a0 <_L_unlock_12114>:
  4168a0:	48 8d 3d b9 8f 2a 00 	lea    0x2a8fb9(%rip),%rdi        # 6bf860 <main_arena>
  4168a7:	48 81 ec 80 00 00 00 	sub    $0x80,%rsp
  4168ae:	e8 ed 04 02 00       	callq  436da0 <__lll_unlock_wake_private>
  4168b3:	48 81 c4 80 00 00 00 	add    $0x80,%rsp
  4168ba:	e9 95 d7 ff ff       	jmpq   414054 <realloc_check+0x164>

00000000004168bf <_L_lock_12680>:
  4168bf:	48 8d 3b             	lea    (%rbx),%rdi
  4168c2:	48 81 ec 80 00 00 00 	sub    $0x80,%rsp
  4168c9:	e8 a2 04 02 00       	callq  436d70 <__lll_lock_wait_private>
  4168ce:	48 81 c4 80 00 00 00 	add    $0x80,%rsp
  4168d5:	e9 d8 da ff ff       	jmpq   4143b2 <__libc_malloc+0x52>

00000000004168da <_L_unlock_12692>:
  4168da:	48 8d 3b             	lea    (%rbx),%rdi
  4168dd:	48 81 ec 80 00 00 00 	sub    $0x80,%rsp
  4168e4:	e8 b7 04 02 00       	callq  436da0 <__lll_unlock_wake_private>
  4168e9:	48 81 c4 80 00 00 00 	add    $0x80,%rsp
  4168f0:	e9 ec da ff ff       	jmpq   4143e1 <__libc_malloc+0x81>

00000000004168f5 <_L_unlock_12769>:
--
  41694e:	48 8d 3d 0b 8f 2a 00 	lea    0x2a8f0b(%rip),%rdi        # 6bf860 <main_arena>
  416955:	48 81 ec 80 00 00 00 	sub    $0x80,%rsp
  41695c:	e8 0f 04 02 00       	callq  436d70 <__lll_lock_wait_private>
  416961:	48 81 c4 80 00 00 00 	add    $0x80,%rsp
  416968:	e9 a7 dc ff ff       	jmpq   414614 <__malloc_get_state+0x44>

000000000041696d <_L_unlock_13111>:
  41696d:	48 8d 3d ec 8e 2a 00 	lea    0x2a8eec(%rip),%rdi        # 6bf860 <main_arena>
  416974:	48 81 ec 80 00 00 00 	sub    $0x80,%rsp
  41697b:	e8 20 04 02 00       	callq  436da0 <__lll_unlock_wake_private>
  416980:	48 81 c4 80 00 00 00 	add    $0x80,%rsp
  416987:	e9 26 de ff ff       	jmpq   4147b2 <__malloc_get_state+0x1e2>

000000000041698c <_L_lock_13235>:
  41698c:	48 8d 7d 00          	lea    0x0(%rbp),%rdi
  416990:	48 81 ec 80 00 00 00 	sub    $0x80,%rsp
  416997:	e8 d4 03 02 00       	callq  436d70 <__lll_lock_wait_private>
  41699c:	48 81 c4 80 00 00 00 	add    $0x80,%rsp
  4169a3:	e9 ce de ff ff       	jmpq   414876 <_mid_memalign+0xb6>

00000000004169a8 <_L_unlock_13262>:
  4169a8:	48 8d 7d 00          	lea    0x0(%rbp),%rdi
  4169ac:	48 81 ec 80 00 00 00 	sub    $0x80,%rsp
  4169b3:	e8 e8 03 02 00       	callq  436da0 <__lll_unlock_wake_private>
  4169b8:	48 81 c4 80 00 00 00 	add    $0x80,%rsp
  4169bf:	e9 ea de ff ff       	jmpq   4148ae <_mid_memalign+0xee>

00000000004169c4 <_L_unlock_13440>:
--
  416a67:	48 8d 3d f2 8d 2a 00 	lea    0x2a8df2(%rip),%rdi        # 6bf860 <main_arena>
  416a6e:	48 81 ec 80 00 00 00 	sub    $0x80,%rsp
  416a75:	e8 f6 02 02 00       	callq  436d70 <__lll_lock_wait_private>
  416a7a:	48 81 c4 80 00 00 00 	add    $0x80,%rsp
  416a81:	e9 70 e7 ff ff       	jmpq   4151f6 <__libc_mallopt+0x46>

0000000000416a86 <_L_unlock_14762>:
  416a86:	48 8d 3d d3 8d 2a 00 	lea    0x2a8dd3(%rip),%rdi        # 6bf860 <main_arena>
  416a8d:	48 81 ec 80 00 00 00 	sub    $0x80,%rsp
  416a94:	e8 07 03 02 00       	callq  436da0 <__lll_unlock_wake_private>
  416a99:	48 81 c4 80 00 00 00 	add    $0x80,%rsp
  416aa0:	e9 df e7 ff ff       	jmpq   415284 <__libc_mallopt+0xd4>

0000000000416aa5 <_L_lock_15616>:
  416aa5:	48 8d 3d b4 8d 2a 00 	lea    0x2a8db4(%rip),%rdi        # 6bf860 <main_arena>
  416aac:	48 81 ec 80 00 00 00 	sub    $0x80,%rsp
  416ab3:	e8 b8 02 02 00       	callq  436d70 <__lll_lock_wait_private>
  416ab8:	48 81 c4 80 00 00 00 	add    $0x80,%rsp
  416abf:	e9 c7 ed ff ff       	jmpq   41588b <__malloc_set_state+0x6b>

0000000000416ac4 <_L_unlock_15943>:
  416ac4:	48 8d 3d 95 8d 2a 00 	lea    0x2a8d95(%rip),%rdi        # 6bf860 <main_arena>
  416acb:	48 81 ec 80 00 00 00 	sub    $0x80,%rsp
  416ad2:	e8 c9 02 02 00       	callq  436da0 <__lll_unlock_wake_private>
  416ad7:	48 81 c4 80 00 00 00 	add    $0x80,%rsp
  416ade:	e9 5f f1 ff ff       	jmpq   415c42 <__malloc_set_state+0x422>

0000000000416ae3 <_L_lock_16262>:
  416ae3:	48 8d 3a             	lea    (%rdx),%rdi
  416ae6:	48 81 ec 80 00 00 00 	sub    $0x80,%rsp
  416aed:	e8 7e 02 02 00       	callq  436d70 <__lll_lock_wait_private>
  416af2:	48 81 c4 80 00 00 00 	add    $0x80,%rsp
  416af9:	e9 7e f3 ff ff       	jmpq   415e7c <__malloc_trim+0x5c>

0000000000416afe <_L_unlock_16445>:
  416afe:	48 8d 3e             	lea    (%rsi),%rdi
  416b01:	48 81 ec 80 00 00 00 	sub    $0x80,%rsp
  416b08:	e8 93 02 02 00       	callq  436da0 <__lll_unlock_wake_private>
  416b0d:	48 81 c4 80 00 00 00 	add    $0x80,%rsp
  416b14:	e9 7b f4 ff ff       	jmpq   415f94 <__malloc_trim+0x174>

0000000000416b19 <_L_lock_16693>:
--
  43768f:	48 89 05 c2 8f 28 00 	mov    %rax,0x288fc2(%rip)        # 6c0658 <_dl_main_map+0x338>
  437696:	48 8b 05 a3 b8 28 00 	mov    0x28b8a3(%rip),%rax        # 6c2f40 <_dl_phdr>
  43769d:	48 89 05 1c 8f 28 00 	mov    %rax,0x288f1c(%rip)        # 6c05c0 <_dl_main_map+0x2a0>
  4376a4:	48 8b 05 cd b8 28 00 	mov    0x28b8cd(%rip),%rax        # 6c2f78 <_dl_phnum>
  4376ab:	66 89 05 1e 8f 28 00 	mov    %ax,0x288f1e(%rip)        # 6c05d0 <_dl_main_map+0x2b0>
  4376b2:	0f 31                	rdtsc  
  4376b4:	48 c1 e2 20          	shl    $0x20,%rdx
  4376b8:	89 c0                	mov    %eax,%eax
  4376ba:	bf 13 7b 49 00       	mov    $0x497b13,%edi
  4376bf:	48 09 c2             	or     %rax,%rdx
  4376c2:	48 89 15 3f b8 28 00 	mov    %rdx,0x28b83f(%rip)        # 6c2f08 <_dl_cpuclock_offset>
  4376c9:	e8 72 fc fc ff       	callq  407340 <getenv>
  4376ce:	ba 09 5d 4a 00       	mov    $0x4a5d09,%edx
  4376d3:	48 85 c0             	test   %rax,%rax
  4376d6:	48 0f 45 d0          	cmovne %rax,%rdx
  4376da:	31 c0                	xor    %eax,%eax
  4376dc:	80 3a 00             	cmpb   $0x0,(%rdx)
  4376df:	0f 95 c0             	setne  %al
  4376e2:	48 83 3d 76 b8 28 00 	cmpq   $0x0,0x28b876(%rip)        # 6c2f60 <_dl_sysinfo_dso>
  4376e9:	00 
  4376ea:	89 05 80 b8 28 00    	mov    %eax,0x28b880(%rip)        # 6c2f70 <_dl_verbose>
  4376f0:	0f 84 60 04 00 00    	je     437b56 <_dl_non_dynamic_init+0x4d6>
  4376f6:	be 09 5d 4a 00       	mov    $0x4a5d09,%esi
  4376fb:	45 31 c9             	xor    %r9d,%r9d
  4376fe:	45 31 c0             	xor    %r8d,%r8d
--
0000000000457f60 <_IO_switch_to_main_wget_area>:
  457f60:	48 8b 87 a0 00 00 00 	mov    0xa0(%rdi),%rax
  457f67:	81 27 ff fe ff ff    	andl   $0xfffffeff,(%rdi)
  457f6d:	48 8b 50 08          	mov    0x8(%rax),%rdx
  457f71:	48 8b 48 50          	mov    0x50(%rax),%rcx
  457f75:	48 89 50 50          	mov    %rdx,0x50(%rax)
  457f79:	48 8b 50 40          	mov    0x40(%rax),%rdx
  457f7d:	48 89 48 08          	mov    %rcx,0x8(%rax)
  457f81:	48 8b 48 10          	mov    0x10(%rax),%rcx
  457f85:	48 89 10             	mov    %rdx,(%rax)
  457f88:	48 89 50 10          	mov    %rdx,0x10(%rax)
  457f8c:	48 89 48 40          	mov    %rcx,0x40(%rax)
  457f90:	c3                   	retq   
  457f91:	66 66 66 66 66 66 2e 	data32 data32 data32 data32 data32 nopw %cs:0x0(%rax,%rax,1)
  457f98:	0f 1f 84 00 00 00 00 
  457f9f:	00 

0000000000457fa0 <_IO_switch_to_wbackup_area>:
  457fa0:	48 8b 87 a0 00 00 00 	mov    0xa0(%rdi),%rax
  457fa7:	81 0f 00 01 00 00    	orl    $0x100,(%rdi)
  457fad:	48 8b 48 08          	mov    0x8(%rax),%rcx
--
  491831:	48 8b 1d 88 16 23 00 	mov    0x231688(%rip),%rbx        # 6c2ec0 <_nl_domain_bindings>
  491838:	48 85 db             	test   %rbx,%rbx
  49183b:	74 3c                	je     491879 <free_mem+0x49>
  49183d:	0f 1f 00             	nopl   (%rax)
  491840:	48 8b 7b 08          	mov    0x8(%rbx),%rdi
  491844:	48 8b 03             	mov    (%rbx),%rax
  491847:	48 81 ff f0 36 49 00 	cmp    $0x4936f0,%rdi
  49184e:	48 89 05 6b 16 23 00 	mov    %rax,0x23166b(%rip)        # 6c2ec0 <_nl_domain_bindings>
  491855:	74 05                	je     49185c <free_mem+0x2c>
  491857:	e8 84 31 f8 ff       	callq  4149e0 <__cfree>
  49185c:	48 8b 7b 10          	mov    0x10(%rbx),%rdi
  491860:	e8 7b 31 f8 ff       	callq  4149e0 <__cfree>
  491865:	48 89 df             	mov    %rbx,%rdi
  491868:	e8 73 31 f8 ff       	callq  4149e0 <__cfree>
  49186d:	48 8b 1d 4c 16 23 00 	mov    0x23164c(%rip),%rbx        # 6c2ec0 <_nl_domain_bindings>
  491874:	48 85 db             	test   %rbx,%rbx
  491877:	75 c7                	jne    491840 <free_mem+0x10>
  491879:	48 8b 3d 00 d8 22 00 	mov    0x22d800(%rip),%rdi        # 6bf080 <_nl_current_default_domain>
  491880:	48 81 ff e7 36 49 00 	cmp    $0x4936e7,%rdi
  491887:	74 05                	je     49188e <free_mem+0x5e>
  491889:	e8 52 31 f8 ff       	callq  4149e0 <__cfree>
  49188e:	48 8b 3d fb f8 22 00 	mov    0x22f8fb(%rip),%rdi        # 6c1190 <root>
  491895:	be e0 49 41 00       	mov    $0x4149e0,%esi
  49189a:	e8 41 4d fa ff       	callq  4365e0 <__tdestroy>
  49189f:	48 8b 3d da f8 22 00 	mov    0x22f8da(%rip),%rdi        # 6c1180 <transmem_list>
  4918a6:	48 c7 05 df f8 22 00 	movq   $0x0,0x22f8df(%rip)        # 6c1190 <root>
  4918ad:	00 00 00 00 
  4918b1:	48 85 ff             	test   %rdi,%rdi
  4918b4:	75 0d                	jne    4918c3 <free_mem+0x93>
  4918b6:	eb 1f                	jmp    4918d7 <free_mem+0xa7>
  4918b8:	0f 1f 84 00 00 00 00 	nopl   0x0(%rax,%rax,1)
  4918bf:	00 
  4918c0:	48 89 df             	mov    %rbx,%rdi
  4918c3:	48 8b 1f             	mov    (%rdi),%rbx
  4918c6:	48 89 1d b3 f8 22 00 	mov    %rbx,0x22f8b3(%rip)        # 6c1180 <transmem_list>
  4918cd:	e8 0e 31 f8 ff       	callq  4149e0 <__cfree>
  4918d2:	48 85 db             	test   %rbx,%rbx
  4918d5:	75 e9                	jne    4918c0 <free_mem+0x90>
--
00000000004918e0 <_nl_finddomain_subfreeres>:
  4918e0:	55                   	push   %rbp
  4918e1:	53                   	push   %rbx
  4918e2:	48 83 ec 08          	sub    $0x8,%rsp
  4918e6:	48 8b 1d f3 f8 22 00 	mov    0x22f8f3(%rip),%rbx        # 6c11e0 <_nl_loaded_domains>
  4918ed:	48 85 db             	test   %rbx,%rbx
  4918f0:	75 09                	jne    4918fb <_nl_finddomain_subfreeres+0x1b>
  4918f2:	eb 2e                	jmp    491922 <_nl_finddomain_subfreeres+0x42>
  4918f4:	0f 1f 40 00          	nopl   0x0(%rax)
  4918f8:	48 89 eb             	mov    %rbp,%rbx
  4918fb:	48 8b 7b 10          	mov    0x10(%rbx),%rdi
  4918ff:	48 85 ff             	test   %rdi,%rdi
  491902:	74 05                	je     491909 <_nl_finddomain_subfreeres+0x29>
  491904:	e8 27 00 00 00       	callq  491930 <_nl_unload_domain>
  491909:	48 8b 3b             	mov    (%rbx),%rdi
  49190c:	48 8b 6b 18          	mov    0x18(%rbx),%rbp
  491910:	e8 cb 30 f8 ff       	callq  4149e0 <__cfree>
  491915:	48 89 df             	mov    %rbx,%rdi
  491918:	e8 c3 30 f8 ff       	callq  4149e0 <__cfree>
  49191d:	48 85 ed             	test   %rbp,%rbp
  491920:	75 d6                	jne    4918f8 <_nl_finddomain_subfreeres+0x18>
  491922:	48 83 c4 08          	add    $0x8,%rsp
  491926:	5b                   	pop    %rbx
  491927:	5d                   	pop    %rbp
  491928:	c3                   	retq   
  491929:	0f 1f 80 00 00 00 00 	nopl   0x0(%rax)

0000000000491930 <_nl_unload_domain>:
  491930:	41 55                	push   %r13
  491932:	49 89 fd             	mov    %rdi,%r13
  491935:	41 54                	push   %r12
  491937:	55                   	push   %rbp
  491938:	53                   	push   %rbx
  491939:	48 83 ec 08          	sub    $0x8,%rsp
  49193d:	48 8b bf b8 00 00 00 	mov    0xb8(%rdi),%rdi
  491944:	48 81 ff c0 3d 49 00 	cmp    $0x493dc0,%rdi
  49194b:	74 05                	je     491952 <_nl_unload_domain+0x22>
  49194d:	e8 6e 3f f7 ff       	callq  4058c0 <__gettext_free_exp>
  491952:	45 31 e4             	xor    %r12d,%r12d
  491955:	31 ed                	xor    %ebp,%ebp
  491957:	49 83 7d 78 00       	cmpq   $0x0,0x78(%r13)
  49195c:	75 1f                	jne    49197d <_nl_unload_domain+0x4d>
  49195e:	eb 48                	jmp    4919a8 <_nl_unload_domain+0x78>
  491960:	48 8b 7b 08          	mov    0x8(%rbx),%rdi
  491964:	48 83 ff ff          	cmp    $0xffffffffffffffff,%rdi
  491968:	74 05                	je     49196f <_nl_unload_domain+0x3f>
  49196a:	e8 11 7b fa ff       	callq  439480 <__gconv_close>
  49196f:	48 83 c5 01          	add    $0x1,%rbp
  491973:	49 83 c4 18          	add    $0x18,%r12
  491977:	49 39 6d 78          	cmp    %rbp,0x78(%r13)
  49197b:	76 2b                	jbe    4919a8 <_nl_unload_domain+0x78>
  49197d:	4c 89 e3             	mov    %r12,%rbx
  491980:	49 03 5d 70          	add    0x70(%r13),%rbx
  491984:	48 8b 3b             	mov    (%rbx),%rdi
  491987:	e8 54 30 f8 ff       	callq  4149e0 <__cfree>
  49198c:	48 8b 7b 10          	mov    0x10(%rbx),%rdi
  491990:	48 8d 47 ff          	lea    -0x1(%rdi),%rax
  491994:	48 83 f8 fd          	cmp    $0xfffffffffffffffd,%rax
  491998:	77 c6                	ja     491960 <_nl_unload_domain+0x30>
  49199a:	e8 41 30 f8 ff       	callq  4149e0 <__cfree>
  49199f:	eb bf                	jmp    491960 <_nl_unload_domain+0x30>
  4919a1:	0f 1f 80 00 00 00 00 	nopl   0x0(%rax)
  4919a8:	49 8b 7d 70          	mov    0x70(%r13),%rdi
  4919ac:	e8 2f 30 f8 ff       	callq  4149e0 <__cfree>
  4919b1:	b8 00 00 00 00       	mov    $0x0,%eax
  4919b6:	48 85 c0             	test   %rax,%rax
  4919b9:	74 0c                	je     4919c7 <_nl_unload_domain+0x97>
  4919bb:	49 8d bd 80 00 00 00 	lea    0x80(%r13),%rdi
  4919c2:	e8 39 e6 b6 ff       	callq  0 <__libc_tsd_LOCALE>
  4919c7:	49 8b 7d 20          	mov    0x20(%r13),%rdi
  4919cb:	e8 10 30 f8 ff       	callq  4149e0 <__cfree>
  4919d0:	41 8b 45 08          	mov    0x8(%r13),%eax
  4919d4:	85 c0                	test   %eax,%eax
  4919d6:	75 20                	jne    4919f8 <_nl_unload_domain+0xc8>
  4919d8:	49 8b 7d 00          	mov    0x0(%r13),%rdi
  4919dc:	e8 ff 2f f8 ff       	callq  4149e0 <__cfree>
  4919e1:	48 83 c4 08          	add    $0x8,%rsp
  4919e5:	4c 89 ef             	mov    %r13,%rdi
  4919e8:	5b                   	pop    %rbx
  4919e9:	5d                   	pop    %rbp
  4919ea:	41 5c                	pop    %r12
  4919ec:	41 5d                	pop    %r13
  4919ee:	e9 ed 2f f8 ff       	jmpq   4149e0 <__cfree>
  4919f3:	0f 1f 44 00 00       	nopl   0x0(%rax,%rax,1)
  4919f8:	49 8b 75 10          	mov    0x10(%r13),%rsi
  4919fc:	49 8b 7d 00          	mov    0x0(%r13),%rdi
  491a00:	e8 7b 2f fa ff       	callq  434980 <__munmap>
  491a05:	eb da                	jmp    4919e1 <_nl_unload_domain+0xb1>
  491a07:	66 0f 1f 84 00 00 00 	nopw   0x0(%rax,%rax,1)
  491a0e:	00 00 

0000000000491a10 <buffer_free>:
  491a10:	48 8b 05 a9 fc 22 00 	mov    0x22fca9(%rip),%rax        # 6c16c0 <freeres_list>
  491a17:	c6 05 b2 fc 22 00 01 	movb   $0x1,0x22fcb2(%rip)        # 6c16d0 <dealloc_buffers>
  491a1e:	48 85 c0             	test   %rax,%rax
  491a21:	74 4c                	je     491a6f <buffer_free+0x5f>
  491a23:	48 83 ec 08          	sub    $0x8,%rsp
  491a27:	66 0f 1f 84 00 00 00 	nopw   0x0(%rax,%rax,1)
  491a2e:	00 00 
  491a30:	48 8b 90 b8 00 00 00 	mov    0xb8(%rax),%rdx
  491a37:	48 8b b8 b0 00 00 00 	mov    0xb0(%rax),%rdi
  491a3e:	48 8d b2 ff 0f 00 00 	lea    0xfff(%rdx),%rsi
  491a45:	48 81 e6 00 f0 ff ff 	and    $0xfffffffffffff000,%rsi
  491a4c:	e8 2f 2f fa ff       	callq  434980 <__munmap>
  491a51:	48 8b 05 68 fc 22 00 	mov    0x22fc68(%rip),%rax        # 6c16c0 <freeres_list>
  491a58:	48 8b 80 a8 00 00 00 	mov    0xa8(%rax),%rax
  491a5f:	48 85 c0             	test   %rax,%rax
  491a62:	48 89 05 57 fc 22 00 	mov    %rax,0x22fc57(%rip)        # 6c16c0 <freeres_list>
--
  49241b:	e8 c0 f4 ff ff       	callq  4918e0 <_nl_finddomain_subfreeres>
  492420:	48 8b 3d f1 0b 23 00 	mov    0x230bf1(%rip),%rdi        # 6c3018 <__gconv_alias_db>
  492427:	48 85 ff             	test   %rdi,%rdi
  49242a:	74 0a                	je     492436 <free_mem+0x26>
  49242c:	be e0 49 41 00       	mov    $0x4149e0,%esi
  492431:	e8 aa 41 fa ff       	callq  4365e0 <__tdestroy>
  492436:	48 8b 1d cb 0b 23 00 	mov    0x230bcb(%rip),%rbx        # 6c3008 <__gconv_modules_db>
  49243d:	48 85 db             	test   %rbx,%rbx
  492440:	74 56                	je     492498 <free_mem+0x88>
  492442:	48 8b 7b 20          	mov    0x20(%rbx),%rdi
  492446:	48 85 ff             	test   %rdi,%rdi
  492449:	74 05                	je     492450 <free_mem+0x40>
  49244b:	e8 d0 f7 ff ff       	callq  491c20 <free_modules_db>
  492450:	48 8b 7b 30          	mov    0x30(%rbx),%rdi
  492454:	48 85 ff             	test   %rdi,%rdi
  492457:	74 1f                	je     492478 <free_mem+0x68>
  492459:	e8 c2 f7 ff ff       	callq  491c20 <free_modules_db>
  49245e:	48 8b 43 18          	mov    0x18(%rbx),%rax
  492462:	48 8b 6b 28          	mov    0x28(%rbx),%rbp
  492466:	80 38 2f             	cmpb   $0x2f,(%rax)
  492469:	74 1a                	je     492485 <free_mem+0x75>
--
00000000004936e7 <_nl_default_default_domain>:
  4936e7:	6d                   	insl   (%dx),%es:(%rdi)
  4936e8:	65                   	gs
  4936e9:	73 73                	jae    49375e <_nl_default_dirname+0x6e>
  4936eb:	61                   	(bad)  
  4936ec:	67                   	addr32
  4936ed:	65                   	gs
  4936ee:	73 00                	jae    4936f0 <_nl_default_dirname>

00000000004936f0 <_nl_default_dirname>:
  4936f0:	2f                   	(bad)  
  4936f1:	75 73                	jne    493766 <_nl_default_dirname+0x76>
  4936f3:	72 2f                	jb     493724 <_nl_default_dirname+0x34>
  4936f5:	73 68                	jae    49375f <_nl_default_dirname+0x6f>
  4936f7:	61                   	(bad)  
  4936f8:	72 65                	jb     49375f <_nl_default_dirname+0x6f>
  4936fa:	2f                   	(bad)  
  4936fb:	6c                   	insb   (%dx),%es:(%rdi)
  4936fc:	6f                   	outsl  %ds:(%rsi),(%dx)
  4936fd:	63 61 6c             	movslq 0x6c(%rcx),%esp
  493700:	65 00 6c 78 00       	add    %ch,%gs:0x0(%rax,%rdi,2)
--
00000000004a56c4 <_libc_intl_domainname>:
  4a56c4:	6c                   	insb   (%dx),%es:(%rdi)
  4a56c5:	69 62 63 00 41 4e 53 	imul   $0x534e4100,0x63(%rdx),%esp

00000000004a56c9 <_nl_C_codeset>:
  4a56c9:	41                   	rex.B
  4a56ca:	4e 53                	rex.WRX push %rbx
  4a56cc:	49 5f                	rex.WB pop %r15
  4a56ce:	58                   	pop    %rax
  4a56cf:	33 2e                	xor    (%rsi),%ebp
  4a56d1:	34 2d                	xor    $0x2d,%al
  4a56d3:	31 39                	xor    %edi,(%rcx)
  4a56d5:	36 38 00             	cmp    %al,%ss:(%rax)
	...

00000000004a56e0 <_nl_C_locobj>:
  4a56e0:	20 9a 49 00 00 00    	and    %bl,0x49(%rdx)
  4a56e6:	00 00                	add    %al,(%rax)
  4a56e8:	20 5a 4a             	and    %bl,0x4a(%rdx)
  4a56eb:	00 00                	add    %al,(%rax)
  4a56ed:	00 00                	add    %al,(%rax)
--
00000000006bf080 <_nl_current_default_domain>:
  6bf080:	e7 36                	out    %eax,$0x36
  6bf082:	49 00 00             	rex.WB add %al,(%r8)
	...

00000000006bf090 <locale_alias_path.10061>:
  6bf090:	1a 37                	sbb    (%rdi),%dh
  6bf092:	49 00 00             	rex.WB add %al,(%r8)
  6bf095:	00 00                	add    %al,(%rax)
	...

00000000006bf098 <__exit_funcs>:
  6bf098:	a0 12 6c 00 00 00 00 	movabs 0xc000000000006c12,%al
  6bf09f:	00 c0 

00000000006bf0a0 <_IO_list_all>:
  6bf0a0:	c0                   	(bad)  
  6bf0a1:	f0 6b 00 00          	lock imul $0x0,(%rax),%eax
	...

00000000006bf0c0 <_IO_2_1_stderr_>:
--
00000000006bf860 <main_arena>:
	...
  6c00c8:	60                   	(bad)  
  6c00c9:	f8                   	clc    
  6c00ca:	6b 00 00             	imul   $0x0,(%rax),%eax
	...

00000000006c00f0 <__morecore>:
  6c00f0:	90                   	nop
  6c00f1:	6b 41 00 00          	imul   $0x0,0x0(%rcx),%eax
	...

00000000006c0100 <__x86_raw_shared_cache_size>:
  6c0100:	00 00                	add    %al,(%rax)
  6c0102:	10 00                	adc    %al,(%rax)
	...

00000000006c0110 <__x86_raw_shared_cache_size_half>:
  6c0110:	00 00                	add    %al,(%rax)
  6c0112:	08 00                	or     %al,(%rax)
	...
--
00000000006c0320 <_dl_main_map>:
	...
  6c0328:	09 5d 4a             	or     %ebx,0x4a(%rbp)
	...
  6c0347:	00 20                	add    %ah,(%rax)
  6c0349:	03 6c 00 00          	add    0x0(%rax,%rax,1),%ebp
	...
  6c0355:	00 00                	add    %al,(%rax)
  6c0357:	00 a0 07 6c 00 00    	add    %ah,0x6c07(%rax)
	...
  6c05d5:	00 00                	add    %al,(%rax)
  6c05d7:	00 90 07 6c 00 00    	add    %dl,0x6c07(%rax)
  6c05dd:	00 00                	add    %al,(%rax)
  6c05df:	00 01                	add    %al,(%rcx)
  6c05e1:	00 00                	add    %al,(%rax)
  6c05e3:	00 00                	add    %al,(%rax)
  6c05e5:	00 00                	add    %al,(%rax)
  6c05e7:	00 18                	add    %bl,(%rax)
  6c05e9:	22 6c 00 00          	and    0x0(%rax,%rax,1),%ch
	...
  6c0675:	00 00                	add    %al,(%rax)
--
  6c06a0:	78 06                	js     6c06a8 <_dl_main_map+0x388>
  6c06a2:	6c                   	insb   (%dx),%es:(%rdi)
  6c06a3:	00 00                	add    %al,(%rax)
  6c06a5:	00 00                	add    %al,(%rax)
  6c06a7:	00 d8                	add    %bl,%al
  6c06a9:	05 6c 00 00 00       	add    $0x6c,%eax
	...
  6c06ea:	00 00                	add    %al,(%rax)
  6c06ec:	01 00                	add    %eax,(%rax)
  6c06ee:	00 00                	add    %al,(%rax)
  6c06f0:	00 00                	add    %al,(%rax)
  6c06f2:	00 00                	add    %al,(%rax)
  6c06f4:	00 08                	add    %cl,(%rax)
	...
  6c0786:	00 00                	add    %al,(%rax)
  6c0788:	01 00                	add    %eax,(%rax)
  6c078a:	00 00                	add    %al,(%rax)
  6c078c:	00 00                	add    %al,(%rax)
	...

00000000006c0790 <__compound_literal.1>:
--
00000000006c11e0 <_nl_loaded_domains>:
	...

00000000006c11f0 <lock.9688>:
	...

00000000006c1200 <maxmap>:
	...

00000000006c1210 <nmap>:
	...

00000000006c1220 <string_space_max>:
	...

00000000006c1228 <string_space_act>:
	...

00000000006c1230 <lock>:
	...

--
00000000006c2ec0 <_nl_domain_bindings>:
	...

00000000006c2ec8 <_nl_msg_cat_cntr>:
	...

00000000006c2ed0 <__new_exitfn_called>:
	...

00000000006c2ed8 <__x86_prefetchw>:
  6c2ed8:	00 00                	add    %al,(%rax)
	...

00000000006c2edc <__libc_multiple_threads>:
  6c2edc:	00 00                	add    %al,(%rax)
	...

00000000006c2ee0 <_dl_profile_output>:
	...

00000000006c2ee8 <_dl_platformlen>:
